(dp1
S'studentlist'
p2
(lp3
(dp4
S'e'
S'SIS Login ID'
p5
sS'Last Name Alias'
p6
(lp7
sS'Last Name'
p8
S'Student'
p9
sS'o'
S'ID'
p10
sS'n'
S'SIS User ID'
p11
sS'First Name'
p12
g9
sS'N'
g9
sS'Full Name'
p13
g9
sS'First Name Alias'
p14
(lp15
sa(dp16
S'e'
S'ceabel@ucsc.edu'
p17
sg6
(lp18
sg8
S'Abel'
p19
sS'o'
S'2584'
p20
sS'n'
S'1398942'
p21
sg12
S'Calvin'
p22
sS'N'
S'Calvin Abel'
p23
sg13
g23
sg14
(lp24
sa(dp25
S'e'
S'kabercro@ucsc.edu'
p26
sg6
(lp27
sg8
S'Abercrombie'
p28
sS'o'
S'20668'
p29
sS'n'
S'1536621'
p30
sg12
S'Kaitlyn'
p31
sS'N'
S'Kaitlyn Abercrombie'
p32
sg13
g32
sg14
(lp33
sa(dp34
S'e'
S'nadhulbo@ucsc.edu'
p35
sg6
(lp36
sg8
S'Adhulbodee'
p37
sS'o'
S'7382'
p38
sS'n'
S'1334663'
p39
sg12
S'Nancy'
p40
sS'N'
S'Nancy Adhulbodee'
p41
sg13
g41
sg14
(lp42
sa(dp43
S'e'
S'jgalanza@ucsc.edu'
p44
sg6
(lp45
sg8
S'Alanzalon'
p46
sS'o'
S'12152'
p47
sS'n'
S'1490625'
p48
sg12
S'Joselyn'
p49
sS'N'
S'Joselyn Alanzalon'
p50
sg13
g50
sg14
(lp51
sa(dp52
S'e'
S'salla@ucsc.edu'
p53
sg6
(lp54
S'Divya Alla'
p55
asg8
S'Alla'
p56
sS'o'
S'14148'
p57
sS'n'
S'1414617'
p58
sg12
S'Sree'
p59
sS'N'
S'Sree Divya Alla'
p60
sg13
g60
sg14
(lp61
sa(dp62
S'e'
S'dicalvar@ucsc.edu'
p63
sg6
(lp64
sg8
S'Alvarado'
p65
sS'o'
S'4237'
p66
sS'n'
S'1461071'
p67
sg12
S'Diana'
p68
sS'N'
S'Diana Alvarado'
p69
sg13
g69
sg14
(lp70
sa(dp71
S'e'
S'jalvar28@ucsc.edu'
p72
sg6
(lp73
sg8
S'Alvarez'
p74
sS'o'
S'12157'
p75
sS'n'
S'1492167'
p76
sg12
S'Jocelyne'
p77
sS'N'
S'Jocelyne Alvarez'
p78
sg13
g78
sg14
(lp79
sa(dp80
S'e'
S'raniceto@ucsc.edu'
p81
sg6
(lp82
sg8
S'Aniceto'
p83
sS'o'
S'19445'
p84
sS'n'
S'1418967'
p85
sg12
S'Renea'
p86
sS'N'
S'Renea Aniceto'
p87
sg13
g87
sg14
(lp88
sa(dp89
S'e'
S'dmaparic@ucsc.edu'
p90
sg6
(lp91
sg8
S'Aparicio'
p92
sS'o'
S'11970'
p93
sS'n'
S'1470917'
p94
sg12
S'Danielle'
p95
sS'N'
S'Danielle Aparicio'
p96
sg13
g96
sg14
(lp97
sa(dp98
S'e'
S'slaquino@ucsc.edu'
p99
sg6
(lp100
sg8
S'Aquino'
p101
sS'o'
S'12019'
p102
sS'n'
S'1474569'
p103
sg12
S'Sandra'
p104
sS'N'
S'Sandra Aquino'
p105
sg13
g105
sg14
(lp106
sa(dp107
S'e'
S'jumayala@ucsc.edu'
p108
sg6
(lp109
sg8
S'Ayala'
p110
sS'o'
S'3602'
p111
sS'n'
S'1433169'
p112
sg12
S'Justin'
p113
sS'N'
S'Justin Ayala'
p114
sg13
g114
sg14
(lp115
sa(dp116
S'e'
S'oaazeved@ucsc.edu'
p117
sg6
(lp118
sg8
S'Azevedo'
p119
sS'o'
S'19224'
p120
sS'n'
S'1398811'
p121
sg12
S'Oliver'
p122
sS'N'
S'Oliver Azevedo'
p123
sg13
g123
sg14
(lp124
sa(dp125
S'e'
S'vvbanh@ucsc.edu'
p126
sg6
(lp127
sg8
S'Banh'
p128
sS'o'
S'12616'
p129
sS'n'
S'1533518'
p130
sg12
S'Vivian'
p131
sS'N'
S'Vivian Banh'
p132
sg13
g132
sg14
(lp133
sa(dp134
S'e'
S'rbarta@ucsc.edu'
p135
sg6
(lp136
sg8
S'Barta'
p137
sS'o'
S'28803'
p138
sS'n'
S'1597475'
p139
sg12
S'Ribhi'
p140
sS'N'
S'Ribhi Barta'
p141
sg13
g141
sg14
(lp142
sa(dp143
S'e'
S'hbattoo@ucsc.edu'
p144
sg6
(lp145
sg8
S'Battoo'
p146
sS'o'
S'11900'
p147
sS'n'
S'1464898'
p148
sg12
S'Harpreet'
p149
sS'N'
S'Harpreet Battoo'
p150
sg13
g150
sg14
(lp151
sa(dp152
S'e'
S'abellipp@ucsc.edu'
p153
sg6
(lp154
sg8
S'Bellippady'
p155
sS'o'
S'9314'
p156
sS'n'
S'1470650'
p157
sg12
S'Akash'
p158
sS'N'
S'Akash Bellippady'
p159
sg13
g159
sg14
(lp160
sa(dp161
S'e'
S'jbenigno@ucsc.edu'
p162
sg6
(lp163
sg8
S'Benigno'
p164
sS'o'
S'18191'
p165
sS'n'
S'1563255'
p166
sg12
S'Justin'
p167
sS'N'
S'Justin Benigno'
p168
sg13
g168
sg14
(lp169
sa(dp170
S'e'
S'kynbenne@ucsc.edu'
p171
sg6
(lp172
sg8
S'Bennett'
p173
sS'o'
S'6980'
p174
sS'n'
S'1547208'
p175
sg12
S'Kyle'
p176
sS'N'
S'Kyle Bennett'
p177
sg13
g177
sg14
(lp178
sa(dp179
S'e'
S'kberi@ucsc.edu'
p180
sg6
(lp181
sg8
S'Beri'
p182
sS'o'
S'19868'
p183
sS'n'
S'1464801'
p184
sg12
S'Krishna'
p185
sS'N'
S'Krishna Beri'
p186
sg13
g186
sg14
(lp187
sa(dp188
S'e'
S'lbogle@ucsc.edu'
p189
sg6
(lp190
sg8
S'Bogle'
p191
sS'o'
S'3544'
p192
sS'n'
S'1431413'
p193
sg12
S'Lauren'
p194
sS'N'
S'Lauren Bogle'
p195
sg13
g195
sg14
(lp196
sa(dp197
S'e'
S'jsbornst@ucsc.edu'
p198
sg6
(lp199
sg8
S'Bornstein'
p200
sS'o'
S'6504'
p201
sS'n'
S'1533236'
p202
sg12
S'Jacob'
p203
sS'N'
S'Jacob Bornstein'
p204
sg13
g204
sg14
(lp205
sa(dp206
S'e'
S'jdbravo@ucsc.edu'
p207
sg6
(lp208
sg8
S'Bravo'
p209
sS'o'
S'4656'
p210
sS'n'
S'1475111'
p211
sg12
S'Jazmin'
p212
sS'N'
S'Jazmin Bravo'
p213
sg13
g213
sg14
(lp214
sa(dp215
S'e'
S'anebrenn@ucsc.edu'
p216
sg6
(lp217
sg8
S'Brennan'
p218
sS'o'
S'19518'
p219
sS'n'
S'1425201'
p220
sg12
S'Annette'
p221
sS'N'
S'Annette Brennan'
p222
sg13
g222
sg14
(lp223
sa(dp224
S'e'
S'pbritova@ucsc.edu'
p225
sg6
(lp226
S'Brito Valecillos'
p227
asg8
S'Valecillos'
p228
sS'o'
S'7369'
p229
sS'n'
S'1559676'
p230
sg12
S'Pablo'
p231
sS'N'
S'Pablo Brito Valecillos'
p232
sg13
g232
sg14
(lp233
sa(dp234
S'e'
S'emmabrow@ucsc.edu'
p235
sg6
(lp236
sg8
S'Brown'
p237
sS'o'
S'12032'
p238
sS'n'
S'1478092'
p239
sg12
S'Emani'
p240
sS'N'
S'Emani Brown'
p241
sg13
g241
sg14
(lp242
sa(dp243
S'e'
S'humbui@ucsc.edu'
p244
sg6
(lp245
sg8
S'Bui'
p246
sS'o'
S'5136'
p247
sS'n'
S'1492831'
p248
sg12
S'Huy'
p249
sS'N'
S'Huy Bui'
p250
sg13
g250
sg14
(lp251
sa(dp252
S'e'
S'khmcamac@ucsc.edu'
p253
sg6
(lp254
sg8
S'Camacho'
p255
sS'o'
S'4317'
p256
sS'n'
S'1463841'
p257
sg12
S'Khalia'
p258
sS'N'
S'Khalia Camacho'
p259
sg13
g259
sg14
(lp260
sa(dp261
S'e'
S'amcapili@ucsc.edu'
p262
sg6
(lp263
sg8
S'Capili'
p264
sS'o'
S'17406'
p265
sS'n'
S'1488578'
p266
sg12
S'Allyson'
p267
sS'N'
S'Allyson Capili'
p268
sg13
g268
sg14
(lp269
sa(dp270
S'e'
S'bcariaga@ucsc.edu'
p271
sg6
(lp272
sg8
S'Cariaga'
p273
sS'o'
S'17911'
p274
sS'n'
S'1533579'
p275
sg12
S'Bret'
p276
sS'N'
S'Bret Cariaga'
p277
sg13
g277
sg14
(lp278
sa(dp279
S'e'
S'dcarmich@ucsc.edu'
p280
sg6
(lp281
sg8
S'Carmichael'
p282
sS'o'
S'4802'
p283
sS'n'
S'1480077'
p284
sg12
S'Daniel'
p285
sS'N'
S'Daniel Carmichael'
p286
sg13
g286
sg14
(lp287
sa(dp288
S'e'
S'aljocarm@ucsc.edu'
p289
sg6
(lp290
sg8
S'Carmona'
p291
sS'o'
S'19222'
p292
sS'n'
S'1398541'
p293
sg12
S'Alexander'
p294
sS'N'
S'Alexander Carmona'
p295
sg13
g295
sg14
(lp296
sa(dp297
S'e'
S'aycarpen@ucsc.edu'
p298
sg6
(lp299
sg8
S'Carpenter'
p300
sS'o'
S'4506'
p301
sS'n'
S'1470549'
p302
sg12
S'Alexander'
p303
sS'N'
S'Alexander Carpenter'
p304
sg13
g304
sg14
(lp305
sa(dp306
S'e'
S'nocastan@ucsc.edu'
p307
sg6
(lp308
sg8
S'Castaneda'
p309
sS'o'
S'5153'
p310
sS'n'
S'1493432'
p311
sg12
S'Noe'
p312
sS'N'
S'Noe Castaneda'
p313
sg13
g313
sg14
(lp314
sa(dp315
S'e'
S'tcederli@ucsc.edu'
p316
sg6
(lp317
sg8
S'Cederlind'
p318
sS'o'
S'8695'
p319
sS'n'
S'1397587'
p320
sg12
S'Tara'
p321
sS'N'
S'Tara Cederlind'
p322
sg13
g322
sg14
(lp323
sa(dp324
S'e'
S'echampio@ucsc.edu'
p325
sg6
(lp326
sg8
S'Champion'
p327
sS'o'
S'12761'
p328
sS'n'
S'1548106'
p329
sg12
S'Emma'
p330
sS'N'
S'Emma Champion'
p331
sg13
g331
sg14
(lp332
sa(dp333
S'e'
S'tycchan@ucsc.edu'
p334
sg6
(lp335
sg8
S'Chan'
p336
sS'o'
S'19792'
p337
sS'n'
S'1457825'
p338
sg12
S'Tyler'
p339
sS'N'
S'Tyler Chan'
p340
sg13
g340
sg14
(lp341
sa(dp342
S'e'
S'vchan11@ucsc.edu'
p343
sg6
(lp344
S'Kwan-Ho Chan'
p345
asg8
S'Chan'
p346
sS'o'
S'14591'
p347
sS'n'
S'1468829'
p348
sg12
S'Victor'
p349
sS'N'
S'Victor Kwan-Ho Chan'
p350
sg13
g350
sg14
(lp351
sa(dp352
S'e'
S'lchen51@ucsc.edu'
p353
sg6
(lp354
sg8
S'Chen'
p355
sS'o'
S'2817'
p356
sS'n'
S'1405582'
p357
sg12
S'Luke'
p358
sS'N'
S'Luke Chen'
p359
sg13
g359
sg14
(lp360
sa(dp361
S'e'
S'nychou@ucsc.edu'
p362
sg6
(lp363
sg8
S'Chou'
p364
sS'o'
S'4185'
p365
sS'n'
S'1459139'
p366
sg12
S'Nicholas'
p367
sS'N'
S'Nicholas Chou'
p368
sg13
g368
sg14
(lp369
sa(dp370
S'e'
S'wjchow@ucsc.edu'
p371
sg6
(lp372
sg8
S'Chow'
p373
sS'o'
S'4543'
p374
sS'n'
S'1471729'
p375
sg12
S'Whitney'
p376
sS'N'
S'Whitney Chow'
p377
sg13
g377
sg14
(lp378
sa(dp379
S'e'
S'mciambro@ucsc.edu'
p380
sg6
(lp381
sg8
S'Ciambrone'
p382
sS'o'
S'6713'
p383
sS'n'
S'1533064'
p384
sg12
S'Mary'
p385
sS'N'
S'Mary Ciambrone'
p386
sg13
g386
sg14
(lp387
sa(dp388
S'e'
S'jclickar@ucsc.edu'
p389
sg6
(lp390
sg8
S'Clickard'
p391
sS'o'
S'5942'
p392
sS'n'
S'1517498'
p393
sg12
S'Julia'
p394
sS'N'
S'Julia Clickard'
p395
sg13
g395
sg14
(lp396
sa(dp397
S'e'
S'scligher@ucsc.edu'
p398
sg6
(lp399
sg8
S'Cligher'
p400
sS'o'
S'14189'
p401
sS'n'
S'1418630'
p402
sg12
S'Sarah'
p403
sS'N'
S'Sarah Cligher'
p404
sg13
g404
sg14
(lp405
sa(dp406
S'e'
S'jgcook@ucsc.edu'
p407
sg6
(lp408
sg8
S'Cook'
p409
sS'o'
S'9365'
p410
sS'n'
S'1475643'
p411
sg12
S'James'
p412
sS'N'
S'James Cook'
p413
sg13
g413
sg14
(lp414
sa(dp415
S'e'
S'ryjcook@ucsc.edu'
p416
sg6
(lp417
sg8
S'Cook'
p418
sS'o'
S'19750'
p419
sS'n'
S'1454165'
p420
sg12
S'Ryan'
p421
sS'N'
S'Ryan Cook'
p422
sg13
g422
sg14
(lp423
sa(dp424
S'e'
S'kecorr@ucsc.edu'
p425
sg6
(lp426
sg8
S'Corr'
p427
sS'o'
S'9896'
p428
sS'n'
S'1527974'
p429
sg12
S'Kaley'
p430
sS'N'
S'Kaley Corr'
p431
sg13
g431
sg14
(lp432
sa(dp433
S'e'
S'jhcraig@ucsc.edu'
p434
sg6
(lp435
sg8
S'Craig'
p436
sS'o'
S'4118'
p437
sS'n'
S'1456833'
p438
sg12
S'Justin'
p439
sS'N'
S'Justin Craig'
p440
sg13
g440
sg14
(lp441
sa(dp442
S'e'
S'tcrespo@ucsc.edu'
p443
sg6
(lp444
S'Vendela Crespo'
p445
asg8
S'Crespo'
p446
sS'o'
S'9005'
p447
sS'n'
S'1431189'
p448
sg12
S'T.'
p449
sS'N'
S'T. Vendela Crespo'
p450
sg13
g450
sg14
(lp451
sa(dp452
S'e'
S'pedang@ucsc.edu'
p453
sg6
(lp454
sg8
S'Dang'
p455
sS'o'
S'4517'
p456
sS'n'
S'1470236'
p457
sg12
S'Peter'
p458
sS'N'
S'Peter Dang'
p459
sg13
g459
sg14
(lp460
sa(dp461
S'e'
S'jddelrea@ucsc.edu'
p462
sg6
(lp463
S'Del Real'
p464
asg8
S'Real'
p465
sS'o'
S'3104'
p466
sS'n'
S'1416070'
p467
sg12
S'Javier'
p468
sS'N'
S'Javier Del Real'
p469
sg13
g469
sg14
(lp470
sa(dp471
S'e'
S'fdelacru@ucsc.edu'
p472
sg6
(lp473
S'Allieghian Dela Cruz'
p474
aS'Dela Cruz'
p475
asg8
S'Cruz'
p476
sS'o'
S'5622'
p477
sS'n'
S'1507825'
p478
sg12
S'Febby'
p479
sS'N'
S'Febby Allieghian Dela Cruz'
p480
sg13
g480
sg14
(lp481
sa(dp482
S'e'
S'sadeva@ucsc.edu'
p483
sg6
(lp484
sg8
S'Deva'
p485
sS'o'
S'14485'
p486
sS'n'
S'1458399'
p487
sg12
S'Sarah'
p488
sS'N'
S'Sarah Deva'
p489
sg13
g489
sg14
(lp490
sa(dp491
S'e'
S'gasdhill@ucsc.edu'
p492
sg6
(lp493
sg8
S'Dhillon'
p494
sS'o'
S'14744'
p495
sS'n'
S'1484518'
p496
sg12
S'Gagandeep'
p497
sS'N'
S'Gagandeep Dhillon'
p498
sg13
g498
sg14
(lp499
sa(dp500
S'e'
S'bdhukuch@ucsc.edu'
p501
sg6
(lp502
sg8
S'Dhukuchhu'
p503
sS'o'
S'20669'
p504
sS'n'
S'1536625'
p505
sg12
S'Binu'
p506
sS'N'
S'Binu Dhukuchhu'
p507
sg13
g507
sg14
(lp508
sa(dp509
S'e'
S'mmdicker@ucsc.edu'
p510
sg6
(lp511
sg8
S'Dickerson'
p512
sS'o'
S'30346'
p513
sS'n'
S'1289716'
p514
sg12
S'Michael'
p515
sS'N'
S'Michael Dickerson'
p516
sg13
g516
sg14
(lp517
sa(dp518
S'e'
S'mdilbeck@ucsc.edu'
p519
sg6
(lp520
sg8
S'Dilbeck'
p521
sS'o'
S'4091'
p522
sS'n'
S'1456541'
p523
sg12
S'Mikayla'
p524
sS'N'
S'Mikayla Dilbeck'
p525
sg13
g525
sg14
(lp526
sa(dp527
S'e'
S'cdonayre@ucsc.edu'
p528
sg6
(lp529
sg8
S'Donayre'
p530
sS'o'
S'4062'
p531
sS'n'
S'1454824'
p532
sg12
S'Christopher'
p533
sS'N'
S'Christopher Donayre'
p534
sg13
g534
sg14
(lp535
sa(dp536
S'e'
S'rdrake@ucsc.edu'
p537
sg6
(lp538
sg8
S'Drake'
p539
sS'o'
S'16773'
p540
sS'n'
S'1413000'
p541
sg12
S'Remi'
p542
sS'N'
S'Remi Drake'
p543
sg13
g543
sg14
(lp544
sa(dp545
S'e'
S'sdrusins@ucsc.edu'
p546
sg6
(lp547
sg8
S'Drusinsky'
p548
sS'o'
S'3244'
p549
sS'n'
S'1419719'
p550
sg12
S'Shiron'
p551
sS'N'
S'Shiron Drusinsky'
p552
sg13
g552
sg14
(lp553
sa(dp554
S'e'
S'khdu@ucsc.edu'
p555
sg6
(lp556
sg8
S'Du'
p557
sS'o'
S'17339'
p558
sS'n'
S'1481573'
p559
sg12
S'Kelvin'
p560
sS'N'
S'Kelvin Du'
p561
sg13
g561
sg14
(lp562
sa(dp563
S'e'
S'cduong6@ucsc.edu'
p564
sg6
(lp565
sg8
S'Duong'
p566
sS'o'
S'9286'
p567
sS'n'
S'1467515'
p568
sg12
S'Cindy'
p569
sS'N'
S'Cindy Duong'
p570
sg13
g570
sg14
(lp571
sa(dp572
S'e'
S'eenshaie@ucsc.edu'
p573
sg6
(lp574
sg8
S'Enshaie'
p575
sS'o'
S'20029'
p576
sS'n'
S'1478417'
p577
sg12
S'Elliot'
p578
sS'N'
S'Elliot Enshaie'
p579
sg13
g579
sg14
(lp580
sa(dp581
S'e'
S'devanovi@ucsc.edu'
p582
sg6
(lp583
sg8
S'Evanovich'
p584
sS'o'
S'16699'
p585
sS'n'
S'1405779'
p586
sg12
S'Devon'
p587
sS'N'
S'Devon Evanovich'
p588
sg13
g588
sg14
(lp589
sa(dp590
S'e'
S'miafajar@ucsc.edu'
p591
sg6
(lp592
S'Paola Fajardo'
p593
asg8
S'Fajardo'
p594
sS'o'
S'29388'
p595
sS'n'
S'1592993'
p596
sg12
S'Micaella'
p597
sS'N'
S'Micaella Paola Fajardo'
p598
sg13
g598
sg14
(lp599
sa(dp600
S'e'
S'sfalakfa@ucsc.edu'
p601
sg6
(lp602
sg8
S'Falakfarsa'
p603
sS'o'
S'2591'
p604
sS'n'
S'1398745'
p605
sg12
S'Sarra'
p606
sS'N'
S'Sarra Falakfarsa'
p607
sg13
g607
sg14
(lp608
sa(dp609
S'e'
S'mrfang@ucsc.edu'
p610
sg6
(lp611
sg8
S'Fang'
p612
sS'o'
S'12053'
p613
sS'n'
S'1480300'
p614
sg12
S'Melissa'
p615
sS'N'
S'Melissa Fang'
p616
sg13
g616
sg14
(lp617
sa(dp618
S'e'
S'jeefelix@ucsc.edu'
p619
sg6
(lp620
sg8
S'Felix'
p621
sS'o'
S'5090'
p622
sS'n'
S'1490864'
p623
sg12
S'Jessica'
p624
sS'N'
S'Jessica Felix'
p625
sg13
g625
sg14
(lp626
sa(dp627
S'e'
S'tfinkel@ucsc.edu'
p628
sg6
(lp629
sg8
S'Finkel'
p630
sS'o'
S'11288'
p631
sS'n'
S'1397110'
p632
sg12
S'Teale'
p633
sS'N'
S'Teale Finkel'
p634
sg13
g634
sg14
(lp635
sa(dp636
S'e'
S'feflores@ucsc.edu'
p637
sg6
(lp638
sg8
S'Flores'
p639
sS'o'
S'16906'
p640
sS'n'
S'1425936'
p641
sg12
S'Fernando'
p642
sS'N'
S'Fernando Flores'
p643
sg13
g643
sg14
(lp644
sa(dp645
S'e'
S'jflore46@ucsc.edu'
p646
sg6
(lp647
sg8
S'Flores'
p648
sS'o'
S'5269'
p649
sS'n'
S'1497247'
p650
sg12
S'Joel'
p651
sS'N'
S'Joel Flores'
p652
sg13
g652
sg14
(lp653
sa(dp654
S'e'
S'elfreder@ucsc.edu'
p655
sg6
(lp656
sg8
S'Frederiksen'
p657
sS'o'
S'23594'
p658
sS'n'
S'1594179'
p659
sg12
S'Emily'
p660
sS'N'
S'Emily Frederiksen'
p661
sg13
g661
sg14
(lp662
sa(dp663
S'e'
S'acfreedm@ucsc.edu'
p664
sg6
(lp665
sg8
S'Freedman'
p666
sS'o'
S'5173'
p667
sS'n'
S'1494611'
p668
sg12
S'Alicia'
p669
sS'N'
S'Alicia Freedman'
p670
sg13
g670
sg14
(lp671
sa(dp672
S'e'
S'srfregos@ucsc.edu'
p673
sg6
(lp674
sg8
S'Fregoso'
p675
sS'o'
S'5825'
p676
sS'n'
S'1513467'
p677
sg12
S'Sydney'
p678
sS'N'
S'Sydney Fregoso'
p679
sg13
g679
sg14
(lp680
sa(dp681
S'e'
S'tsfujimo@ucsc.edu'
p682
sg6
(lp683
sg8
S'Fujimoto'
p684
sS'o'
S'14696'
p685
sS'n'
S'1477964'
p686
sg12
S'Trevor'
p687
sS'N'
S'Trevor Fujimoto'
p688
sg13
g688
sg14
(lp689
sa(dp690
S'e'
S'sfuruyam@ucsc.edu'
p691
sg6
(lp692
sg8
S'Furuyama'
p693
sS'o'
S'9440'
p694
sS'n'
S'1482548'
p695
sg12
S'Sora'
p696
sS'N'
S'Sora Furuyama'
p697
sg13
g697
sg14
(lp698
sa(dp699
S'e'
S'gigamboa@ucsc.edu'
p700
sg6
(lp701
sg8
S'Gamboa'
p702
sS'o'
S'1545'
p703
sS'n'
S'1347337'
p704
sg12
S'Gino'
p705
sS'N'
S'Gino Gamboa'
p706
sg13
g706
sg14
(lp707
sa(dp708
S'e'
S'agarc105@ucsc.edu'
p709
sg6
(lp710
S'Garcia Alamo'
p711
asg8
S'Alamo'
p712
sS'o'
S'4465'
p713
sS'n'
S'1468454'
p714
sg12
S'Alejandra'
p715
sS'N'
S'Alejandra Garcia Alamo'
p716
sg13
g716
sg14
(lp717
sa(dp718
S'e'
S'rgarci29@ucsc.edu'
p719
sg6
(lp720
sg8
S'Garcia'
p721
sS'o'
S'16622'
p722
sS'n'
S'1399155'
p723
sg12
S'Rosemary'
p724
sS'N'
S'Rosemary Garcia'
p725
sg13
g725
sg14
(lp726
sa(dp727
S'e'
S'egarfias@ucsc.edu'
p728
sg6
(lp729
sg8
S'Garfias-Barragan'
p730
sS'o'
S'12877'
p731
sS'n'
S'1560005'
p732
sg12
S'Evelynne'
p733
sS'N'
S'Evelynne Garfias-Barragan'
p734
sg13
g734
sg14
(lp735
sa(dp736
S'e'
S'hargonza@ucsc.edu'
p737
sg6
(lp738
sg8
S'Gonzales'
p739
sS'o'
S'3146'
p740
sS'n'
S'1417437'
p741
sg12
S'Hailey'
p742
sS'N'
S'Hailey Gonzales'
p743
sg13
g743
sg14
(lp744
sa(dp745
S'e'
S'beagreen@ucsc.edu'
p746
sg6
(lp747
sg8
S'Greenberg'
p748
sS'o'
S'4178'
p749
sS'n'
S'1459275'
p750
sg12
S'Benjamin'
p751
sS'N'
S'Benjamin Greenberg'
p752
sg13
g752
sg14
(lp753
sa(dp754
S'e'
S'rrgreer@ucsc.edu'
p755
sg6
(lp756
sg8
S'Greer'
p757
sS'o'
S'16718'
p758
sS'n'
S'1407362'
p759
sg12
S'Rachael'
p760
sS'N'
S'Rachael Greer'
p761
sg13
g761
sg14
(lp762
sa(dp763
S'e'
S'egrichuh@ucsc.edu'
p764
sg6
(lp765
sg8
S'Grichuhin'
p766
sS'o'
S'5080'
p767
sS'n'
S'1489922'
p768
sg12
S'Emily'
p769
sS'N'
S'Emily Grichuhin'
p770
sg13
g770
sg14
(lp771
sa(dp772
S'e'
S'kgullick@ucsc.edu'
p773
sg6
(lp774
sg8
S'Gullickson'
p775
sS'o'
S'14428'
p776
sS'n'
S'1450557'
p777
sg12
S'Kailey'
p778
sS'N'
S'Kailey Gullickson'
p779
sg13
g779
sg14
(lp780
sa(dp781
S'e'
S'ammgutie@ucsc.edu'
p782
sg6
(lp783
sg8
S'Gutierrez'
p784
sS'o'
S'19431'
p785
sS'n'
S'1418770'
p786
sg12
S'Amanda'
p787
sS'N'
S'Amanda Gutierrez'
p788
sg13
g788
sg14
(lp789
sa(dp790
S'e'
S'caanguti@ucsc.edu'
p791
sg6
(lp792
sg8
S'Gutierrez'
p793
sS'o'
S'12984'
p794
sS'n'
S'1332863'
p795
sg12
S'Carlos'
p796
sS'N'
S'Carlos Gutierrez'
p797
sg13
g797
sg14
(lp798
sa(dp799
S'e'
S'hahendri@ucsc.edu'
p800
sg6
(lp801
sg8
S'Hendrix'
p802
sS'o'
S'12024'
p803
sS'n'
S'1476679'
p804
sg12
S'Hailey'
p805
sS'N'
S'Hailey Hendrix'
p806
sg13
g806
sg14
(lp807
sa(dp808
S'e'
S'ghinojos@ucsc.edu'
p809
sg6
(lp810
sg8
S'Hinojosa'
p811
sS'o'
S'2091'
p812
sS'n'
S'1371321'
p813
sg12
S'Gabriela'
p814
sS'N'
S'Gabriela Hinojosa'
p815
sg13
g815
sg14
(lp816
sa(dp817
S'e'
S'jealhowa@ucsc.edu'
p818
sg6
(lp819
sg8
S'Howard'
p820
sS'o'
S'4505'
p821
sS'n'
S'1469579'
p822
sg12
S'Jennifer'
p823
sS'N'
S'Jennifer Howard'
p824
sg13
g824
sg14
(lp825
sa(dp826
S'e'
S'andhuang@ucsc.edu'
p827
sg6
(lp828
sg8
S'Huang'
p829
sS'o'
S'7284'
p830
sS'n'
S'1558345'
p831
sg12
S'Andrew'
p832
sS'N'
S'Andrew Huang'
p833
sg13
g833
sg14
(lp834
sa(dp835
S'e'
S'whurwit@ucsc.edu'
p836
sg6
(lp837
sg8
S'Hurwit'
p838
sS'o'
S'14221'
p839
sS'n'
S'1421381'
p840
sg12
S'Wendy'
p841
sS'N'
S'Wendy Hurwit'
p842
sg13
g842
sg14
(lp843
sa(dp844
S'e'
S'ahuynh12@ucsc.edu'
p845
sg6
(lp846
sg8
S'Huynh'
p847
sS'o'
S'4220'
p848
sS'n'
S'1460431'
p849
sg12
S'Amber'
p850
sS'N'
S'Amber Huynh'
p851
sg13
g851
sg14
(lp852
sa(dp853
S'e'
S'nacohuyn@ucsc.edu'
p854
sg6
(lp855
sg8
S'Huynh'
p856
sS'o'
S'25720'
p857
sS'n'
S'1602400'
p858
sg12
S'Nathan'
p859
sS'N'
S'Nathan Huynh'
p860
sg13
g860
sg14
(lp861
sa(dp862
S'e'
S'ymibrahi@ucsc.edu'
p863
sg6
(lp864
sg8
S'Ibrahim'
p865
sS'o'
S'12403'
p866
sS'n'
S'1517866'
p867
sg12
S'Yaman'
p868
sS'N'
S'Yaman Ibrahim'
p869
sg13
g869
sg14
(lp870
sa(dp871
S'e'
S'jeiwuagw@ucsc.edu'
p872
sg6
(lp873
sg8
S'Iwuagwu'
p874
sS'o'
S'11846'
p875
sS'n'
S'1460923'
p876
sg12
S'Justin'
p877
sS'N'
S'Justin Iwuagwu'
p878
sg13
g878
sg14
(lp879
sa(dp880
S'e'
S'cejensen@ucsc.edu'
p881
sg6
(lp882
sg8
S'Jensen'
p883
sS'o'
S'4279'
p884
sS'n'
S'1462765'
p885
sg12
S'Claire'
p886
sS'N'
S'Claire Jensen'
p887
sg13
g887
sg14
(lp888
sa(dp889
S'e'
S'nadjimen@ucsc.edu'
p890
sg6
(lp891
sg8
S'Jimenez'
p892
sS'o'
S'3205'
p893
sS'n'
S'1418485'
p894
sg12
S'Natalie'
p895
sS'N'
S'Natalie Jimenez'
p896
sg13
g896
sg14
(lp897
sa(dp898
S'e'
S'rorjimen@ucsc.edu'
p899
sg6
(lp900
S'Junior Jimenez'
p901
asg8
S'Jimenez'
p902
sS'o'
S'3087'
p903
sS'n'
S'1415235'
p904
sg12
S'Rommel'
p905
sS'N'
S'Rommel Junior Jimenez'
p906
sg13
g906
sg14
(lp907
sa(dp908
S'e'
S'ckarbum@ucsc.edu'
p909
sg6
(lp910
sg8
S'Karbum'
p911
sS'o'
S'11908'
p912
sS'n'
S'1465746'
p913
sg12
S'Cameron'
p914
sS'N'
S'Cameron Karbum'
p915
sg13
g915
sg14
(lp916
sa(dp917
S'e'
S'skeith@ucsc.edu'
p918
sg6
(lp919
sg8
S'Keith'
p920
sS'o'
S'16448'
p921
sS'n'
S'1370325'
p922
sg12
S'Sydney'
p923
sS'N'
S'Sydney Keith'
p924
sg13
g924
sg14
(lp925
sa(dp926
S'e'
S'bkim36@ucsc.edu'
p927
sg6
(lp928
sg8
S'Kim'
p929
sS'o'
S'4670'
p930
sS'n'
S'1474549'
p931
sg12
S'Byunghun'
p932
sS'N'
S'Byunghun Kim'
p933
sg13
g933
sg14
(lp934
sa(dp935
S'e'
S'lkizer@ucsc.edu'
p936
sg6
(lp937
sg8
S'Kizer'
p938
sS'o'
S'2655'
p939
sS'n'
S'1400767'
p940
sg12
S'Lauren'
p941
sS'N'
S'Lauren Kizer'
p942
sg13
g942
sg14
(lp943
sa(dp944
S'e'
S'hklinski@ucsc.edu'
p945
sg6
(lp946
sg8
S'Klinski'
p947
sS'o'
S'3968'
p948
sS'n'
S'1451703'
p949
sg12
S'Harrison'
p950
sS'N'
S'Harrison Klinski'
p951
sg13
g951
sg14
(lp952
sa(dp953
S'e'
S'aupkoshy@ucsc.edu'
p954
sg6
(lp955
sg8
S'Koshy'
p956
sS'o'
S'5024'
p957
sS'n'
S'1487640'
p958
sg12
S'Auguste'
p959
sS'N'
S'Auguste Koshy'
p960
sg13
g960
sg14
(lp961
sa(dp962
S'e'
S'dkuang2@ucsc.edu'
p963
sg6
(lp964
sg8
S'Kuang'
p965
sS'o'
S'17910'
p966
sS'n'
S'1532135'
p967
sg12
S'Daisy'
p968
sS'N'
S'Daisy Kuang'
p969
sg13
g969
sg14
(lp970
sa(dp971
S'e'
S'hkweon@ucsc.edu'
p972
sg6
(lp973
S'Jin Kweon'
p974
asg8
S'Kweon'
p975
sS'o'
S'17974'
p976
sS'n'
S'1542202'
p977
sg12
S'Hyeok'
p978
sS'N'
S'Hyeok Jin Kweon'
p979
sg13
g979
sg14
(lp980
sa(dp981
S'e'
S'elancast@ucsc.edu'
p982
sg6
(lp983
sg8
S'Lancaster'
p984
sS'o'
S'17804'
p985
sS'n'
S'1527336'
p986
sg12
S'Emily'
p987
sS'N'
S'Emily Lancaster'
p988
sg13
g988
sg14
(lp989
sa(dp990
S'e'
S'ptlaw@ucsc.edu'
p991
sg6
(lp992
sg8
S'Law'
p993
sS'o'
S'9282'
p994
sS'n'
S'1467321'
p995
sg12
S'Philip'
p996
sS'N'
S'Philip Law'
p997
sg13
g997
sg14
(lp998
sa(dp999
S'e'
S'hlee105@ucsc.edu'
p1000
sg6
(lp1001
S'Ping Lee'
p1002
asg8
S'Lee'
p1003
sS'o'
S'17352'
p1004
sS'n'
S'1481812'
p1005
sg12
S'Hao'
p1006
sS'N'
S'Hao Ping Lee'
p1007
sg13
g1007
sg14
(lp1008
sa(dp1009
S'e'
S'reclee@ucsc.edu'
p1010
sg6
(lp1011
sg8
S'Lee'
p1012
sS'o'
S'9480'
p1013
sS'n'
S'1486940'
p1014
sg12
S'Rebecca'
p1015
sS'N'
S'Rebecca Lee'
p1016
sg13
g1016
sg14
(lp1017
sa(dp1018
S'e'
S'somilee@ucsc.edu'
p1019
sg6
(lp1020
sg8
S'Lee'
p1021
sS'o'
S'8778'
p1022
sS'n'
S'1407069'
p1023
sg12
S'Sophie'
p1024
sS'N'
S'Sophie Lee'
p1025
sg13
g1025
sg14
(lp1026
sa(dp1027
S'e'
S'jleon5@ucsc.edu'
p1028
sg6
(lp1029
sg8
S'Leon'
p1030
sS'o'
S'9483'
p1031
sS'n'
S'1487589'
p1032
sg12
S'Jennifer'
p1033
sS'N'
S'Jennifer Leon'
p1034
sg13
g1034
sg14
(lp1035
sa(dp1036
S'e'
S'matleven@ucsc.edu'
p1037
sg6
(lp1038
sg8
S'Levenson'
p1039
sS'o'
S'19831'
p1040
sS'n'
S'1463130'
p1041
sg12
S'Max'
p1042
sS'N'
S'Max Levenson'
p1043
sg13
g1043
sg14
(lp1044
sa(dp1045
S'e'
S'clmlewis@ucsc.edu'
p1046
sg6
(lp1047
sg8
S'Lewis'
p1048
sS'o'
S'20039'
p1049
sS'n'
S'1479755'
p1050
sg12
S'Claire'
p1051
sS'N'
S'Claire Lewis'
p1052
sg13
g1052
sg14
(lp1053
sa(dp1054
S'e'
S'mmleyva@ucsc.edu'
p1055
sg6
(lp1056
sg8
S'Leyva'
p1057
sS'o'
S'27237'
p1058
sS'n'
S'1425076'
p1059
sg12
S'Michaela'
p1060
sS'N'
S'Michaela Leyva'
p1061
sg13
g1061
sg14
(lp1062
sa(dp1063
S'e'
S'bjlim@ucsc.edu'
p1064
sg6
(lp1065
sg8
S'Lim'
p1066
sS'o'
S'7289'
p1067
sS'n'
S'1205186'
p1068
sg12
S'Brittany'
p1069
sS'N'
S'Brittany Lim'
p1070
sg13
g1070
sg14
(lp1071
sa(dp1072
S'e'
S'jlin72@ucsc.edu'
p1073
sg6
(lp1074
S'Yu Lin'
p1075
asg8
S'Lin'
p1076
sS'o'
S'4634'
p1077
sS'n'
S'1475919'
p1078
sg12
S'Ju'
p1079
sS'N'
S'Ju Yu Lin'
p1080
sg13
g1080
sg14
(lp1081
sa(dp1082
S'e'
S'xliu87@ucsc.edu'
p1083
sg6
(lp1084
S'Qi Liu'
p1085
asg8
S'Liu'
p1086
sS'o'
S'17784'
p1087
sS'n'
S'1526159'
p1088
sg12
S'Xuan'
p1089
sS'N'
S'Xuan Qi Liu'
p1090
sg13
g1090
sg14
(lp1091
sa(dp1092
S'e'
S'cma6568@ucsc.edu'
p1093
sg6
(lp1094
sg8
S'Ma'
p1095
sS'o'
S'2831'
p1096
sS'n'
S'1406834'
p1097
sg12
S'Carmen'
p1098
sS'N'
S'Carmen Ma'
p1099
sg13
g1099
sg14
(lp1100
sa(dp1101
S'e'
S'yma16@ucsc.edu'
p1102
sg6
(lp1103
sg8
S'Ma'
p1104
sS'o'
S'16702'
p1105
sS'n'
S'1405629'
p1106
sg12
S'Yilin'
p1107
sS'N'
S'Yilin Ma'
p1108
sg13
g1108
sg14
(lp1109
sa(dp1110
S'e'
S'drymacia@ucsc.edu'
p1111
sg6
(lp1112
sg8
S'Macias'
p1113
sS'o'
S'11653'
p1114
sS'n'
S'1434899'
p1115
sg12
S'Drew'
p1116
sS'N'
S'Drew Macias'
p1117
sg13
g1117
sg14
(lp1118
sa(dp1119
S'e'
S'nmanatad@ucsc.edu'
p1120
sg6
(lp1121
sg8
S'Manatad'
p1122
sS'o'
S'5150'
p1123
sS'n'
S'1493282'
p1124
sg12
S'Norbert'
p1125
sS'N'
S'Norbert Manatad'
p1126
sg13
g1126
sg14
(lp1127
sa(dp1128
S'e'
S'fmangura@ucsc.edu'
p1129
sg6
(lp1130
sg8
S'Manguray'
p1131
sS'o'
S'9469'
p1132
sS'n'
S'1486196'
p1133
sg12
S'Franz'
p1134
sS'N'
S'Franz Manguray'
p1135
sg13
g1135
sg14
(lp1136
sa(dp1137
S'e'
S'smanoel@ucsc.edu'
p1138
sg6
(lp1139
sg8
S'Manoel'
p1140
sS'o'
S'18184'
p1141
sS'n'
S'1499455'
p1142
sg12
S'Shunt'
p1143
sS'N'
S'Shunt Manoel'
p1144
sg13
g1144
sg14
(lp1145
sa(dp1146
S'e'
S'jugmarti@ucsc.edu'
p1147
sg6
(lp1148
sg8
S'Martin'
p1149
sS'o'
S'12182'
p1150
sS'n'
S'1494687'
p1151
sg12
S'Julia'
p1152
sS'N'
S'Julia Martin'
p1153
sg13
g1153
sg14
(lp1154
sa(dp1155
S'e'
S'jmart120@ucsc.edu'
p1156
sg6
(lp1157
sg8
S'Martinez'
p1158
sS'o'
S'4082'
p1159
sS'n'
S'1455406'
p1160
sg12
S'Jenna'
p1161
sS'N'
S'Jenna Martinez'
p1162
sg13
g1162
sg14
(lp1163
sa(dp1164
S'e'
S'kamarx@ucsc.edu'
p1165
sg6
(lp1166
sg8
S'Marx'
p1167
sS'o'
S'6881'
p1168
sS'n'
S'1543662'
p1169
sg12
S'Klaus'
p1170
sS'N'
S'Klaus Marx'
p1171
sg13
g1171
sg14
(lp1172
sa(dp1173
S'e'
S'amasarap@ucsc.edu'
p1174
sg6
(lp1175
sg8
S'Masarapu'
p1176
sS'o'
S'12126'
p1177
sS'n'
S'1487929'
p1178
sg12
S'Akhila'
p1179
sS'N'
S'Akhila Masarapu'
p1180
sg13
g1180
sg14
(lp1181
sa(dp1182
S'e'
S'joalmata@ucsc.edu'
p1183
sg6
(lp1184
sg8
S'Mata'
p1185
sS'o'
S'12109'
p1186
sS'n'
S'1485946'
p1187
sg12
S'Jorge'
p1188
sS'N'
S'Jorge Mata'
p1189
sg13
g1189
sg14
(lp1190
sa(dp1191
S'e'
S'smccollu@ucsc.edu'
p1192
sg6
(lp1193
sg8
S'Mccollum'
p1194
sS'o'
S'6674'
p1195
sS'n'
S'1539194'
p1196
sg12
S'Sean'
p1197
sS'N'
S'Sean Mccollum'
p1198
sg13
g1198
sg14
(lp1199
sa(dp1200
S'e'
S'tmcginle@ucsc.edu'
p1201
sg6
(lp1202
sg8
S'Mcginley'
p1203
sS'o'
S'12754'
p1204
sS'n'
S'1548048'
p1205
sg12
S'Timothy'
p1206
sS'N'
S'Timothy Mcginley'
p1207
sg13
g1207
sg14
(lp1208
sa(dp1209
S'e'
S'zmclenna@ucsc.edu'
p1210
sg6
(lp1211
sg8
S'Mclennan'
p1212
sS'o'
S'14668'
p1213
sS'n'
S'1475080'
p1214
sg12
S'Zachary'
p1215
sS'N'
S'Zachary Mclennan'
p1216
sg13
g1216
sg14
(lp1217
sa(dp1218
S'e'
S'smedor@ucsc.edu'
p1219
sg6
(lp1220
sg8
S'Medor'
p1221
sS'o'
S'8367'
p1222
sS'n'
S'1349545'
p1223
sg12
S'Sara'
p1224
sS'N'
S'Sara Medor'
p1225
sg13
g1225
sg14
(lp1226
sa(dp1227
S'e'
S'tmelms@ucsc.edu'
p1228
sg6
(lp1229
sg8
S'Melms'
p1230
sS'o'
S'26362'
p1231
sS'n'
S'1580868'
p1232
sg12
S'Tyler'
p1233
sS'N'
S'Tyler Melms'
p1234
sg13
g1234
sg14
(lp1235
sa(dp1236
S'e'
S'mammendi@ucsc.edu'
p1237
sg6
(lp1238
sg8
S'Mendiola'
p1239
sS'o'
S'4934'
p1240
sS'n'
S'1483783'
p1241
sg12
S'Malia'
p1242
sS'N'
S'Malia Mendiola'
p1243
sg13
g1243
sg14
(lp1244
sa(dp1245
S'e'
S'mmodena@ucsc.edu'
p1246
sg6
(lp1247
sg8
S'Modena'
p1248
sS'o'
S'18195'
p1249
sS'n'
S'1500666'
p1250
sg12
S'Matthew'
p1251
sS'N'
S'Matthew Modena'
p1252
sg13
g1252
sg14
(lp1253
sa(dp1254
S'e'
S'rmodlin@ucsc.edu'
p1255
sg6
(lp1256
sg8
S'Modlin'
p1257
sS'o'
S'4153'
p1258
sS'n'
S'1458660'
p1259
sg12
S'Ryan'
p1260
sS'N'
S'Ryan Modlin'
p1261
sg13
g1261
sg14
(lp1262
sa(dp1263
S'e'
S'mmok@ucsc.edu'
p1264
sg6
(lp1265
sg8
S'Mok'
p1266
sS'o'
S'9470'
p1267
sS'n'
S'1486202'
p1268
sg12
S'Megan'
p1269
sS'N'
S'Megan Mok'
p1270
sg13
g1270
sg14
(lp1271
sa(dp1272
S'e'
S'cgmorris@ucsc.edu'
p1273
sg6
(lp1274
sg8
S'Morris'
p1275
sS'o'
S'20065'
p1276
sS'n'
S'1483028'
p1277
sg12
S'Chase'
p1278
sS'N'
S'Chase Morris'
p1279
sg13
g1279
sg14
(lp1280
sa(dp1281
S'e'
S'sjngai@ucsc.edu'
p1282
sg6
(lp1283
sg8
S'Ngai'
p1284
sS'o'
S'3215'
p1285
sS'n'
S'1419487'
p1286
sg12
S'Steven'
p1287
sS'N'
S'Steven Ngai'
p1288
sg13
g1288
sg14
(lp1289
sa(dp1290
S'e'
S'jepngo@ucsc.edu'
p1291
sg6
(lp1292
sg8
S'Ngo'
p1293
sS'o'
S'4539'
p1294
sS'n'
S'1471215'
p1295
sg12
S'Jessica'
p1296
sS'N'
S'Jessica Ngo'
p1297
sg13
g1297
sg14
(lp1298
sa(dp1299
S'e'
S'knguye95@ucsc.edu'
p1300
sg6
(lp1301
sg8
S'Nguyen'
p1302
sS'o'
S'4662'
p1303
sS'n'
S'1475654'
p1304
sg12
S'Kathy'
p1305
sS'N'
S'Kathy Nguyen'
p1306
sg13
g1306
sg14
(lp1307
sa(dp1308
S'e'
S'mnguy103@ucsc.edu'
p1309
sg6
(lp1310
S'Mathias Nguyen'
p1311
asg8
S'Nguyen'
p1312
sS'o'
S'4201'
p1313
sS'n'
S'1460023'
p1314
sg12
S'Minh'
p1315
sS'N'
S'Minh Mathias Nguyen'
p1316
sg13
g1316
sg14
(lp1317
sa(dp1318
S'e'
S'snguye22@ucsc.edu'
p1319
sg6
(lp1320
sg8
S'Nguyen'
p1321
sS'o'
S'19928'
p1322
sS'n'
S'1470393'
p1323
sg12
S'Sabrina'
p1324
sS'N'
S'Sabrina Nguyen'
p1325
sg13
g1325
sg14
(lp1326
sa(dp1327
S'e'
S'sunnguye@ucsc.edu'
p1328
sg6
(lp1329
sg8
S'Nguyen'
p1330
sS'o'
S'9278'
p1331
sS'n'
S'1465572'
p1332
sg12
S'Susan'
p1333
sS'N'
S'Susan Nguyen'
p1334
sg13
g1334
sg14
(lp1335
sa(dp1336
S'e'
S'ticunguy@ucsc.edu'
p1337
sg6
(lp1338
sg8
S'Nguyen'
p1339
sS'o'
S'14331'
p1340
sS'n'
S'1435509'
p1341
sg12
S'Timothy'
p1342
sS'N'
S'Timothy Nguyen'
p1343
sg13
g1343
sg14
(lp1344
sa(dp1345
S'e'
S'vnguye89@ucsc.edu'
p1346
sg6
(lp1347
sg8
S'Nguyen'
p1348
sS'o'
S'23708'
p1349
sS'n'
S'1596504'
p1350
sg12
S'Vi'
p1351
sS'N'
S'Vi Nguyen'
p1352
sg13
g1352
sg14
(lp1353
sa(dp1354
S'e'
S'sinham@ucsc.edu'
p1355
sg6
(lp1356
sg8
S'Nham'
p1357
sS'o'
S'8772'
p1358
sS'n'
S'1406890'
p1359
sg12
S'Simon'
p1360
sS'N'
S'Simon Nham'
p1361
sg13
g1361
sg14
(lp1362
sa(dp1363
S'e'
S'eniu@ucsc.edu'
p1364
sg6
(lp1365
sg8
S'Niu'
p1366
sS'o'
S'19838'
p1367
sS'n'
S'1461922'
p1368
sg12
S'Eric'
p1369
sS'N'
S'Eric Niu'
p1370
sg13
g1370
sg14
(lp1371
sa(dp1372
S'e'
S'enormand@ucsc.edu'
p1373
sg6
(lp1374
sg8
S'Normand'
p1375
sS'o'
S'7780'
p1376
sS'n'
S'1570365'
p1377
sg12
S'Elizabeth'
p1378
sS'N'
S'Elizabeth Normand'
p1379
sg13
g1379
sg14
(lp1380
sa(dp1381
S'e'
S'miannune@ucsc.edu'
p1382
sg6
(lp1383
sg8
S'Nunez'
p1384
sS'o'
S'11168'
p1385
sS'n'
S'1374773'
p1386
sg12
S'Micael'
p1387
sS'N'
S'Micael Nunez'
p1388
sg13
g1388
sg14
(lp1389
sa(dp1390
S'e'
S'dober@ucsc.edu'
p1391
sg6
(lp1392
sg8
S'Ober'
p1393
sS'o'
S'9993'
p1394
sS'n'
S'1534729'
p1395
sg12
S'Duncan'
p1396
sS'N'
S'Duncan Ober'
p1397
sg13
g1397
sg14
(lp1398
sa(dp1399
S'e'
S'dpabbi@ucsc.edu'
p1400
sg6
(lp1401
sg8
S'Pabbi'
p1402
sS'o'
S'22536'
p1403
sS'n'
S'1423121'
p1404
sg12
S'Deeksha'
p1405
sS'N'
S'Deeksha Pabbi'
p1406
sg13
g1406
sg14
(lp1407
sa(dp1408
S'e'
S'mpaine@ucsc.edu'
p1409
sg6
(lp1410
sg8
S'Paine'
p1411
sS'o'
S'4659'
p1412
sS'n'
S'1475939'
p1413
sg12
S'Melissa'
p1414
sS'N'
S'Melissa Paine'
p1415
sg13
g1415
sg14
(lp1416
sa(dp1417
S'e'
S'aperever@ucsc.edu'
p1418
sg6
(lp1419
sg8
S'Pereverzev'
p1420
sS'o'
S'9891'
p1421
sS'n'
S'1526651'
p1422
sg12
S'Aleksandr'
p1423
sS'N'
S'Aleksandr Pereverzev'
p1424
sg13
g1424
sg14
(lp1425
sa(dp1426
S'e'
S'searpere@ucsc.edu'
p1427
sg6
(lp1428
sg8
S'Perez'
p1429
sS'o'
S'9042'
p1430
sS'n'
S'1435152'
p1431
sg12
S'Sergio'
p1432
sS'N'
S'Sergio Perez'
p1433
sg13
g1433
sg14
(lp1434
sa(dp1435
S'e'
S'thlpham@ucsc.edu'
p1436
sg6
(lp1437
sg8
S'Pham'
p1438
sS'o'
S'14431'
p1439
sS'n'
S'1451699'
p1440
sg12
S'Thuy-Linh'
p1441
sS'N'
S'Thuy-Linh Pham'
p1442
sg13
g1442
sg14
(lp1443
sa(dp1444
S'e'
S'mepiment@ucsc.edu'
p1445
sg6
(lp1446
sg8
S'Pimentel'
p1447
sS'o'
S'22537'
p1448
sS'n'
S'1424834'
p1449
sg12
S'Melissa'
p1450
sS'N'
S'Melissa Pimentel'
p1451
sg13
g1451
sg14
(lp1452
sa(dp1453
S'e'
S'apirzada@ucsc.edu'
p1454
sg6
(lp1455
sg8
S'Pirzada'
p1456
sS'o'
S'9385'
p1457
sS'n'
S'1477273'
p1458
sg12
S'Arsalon'
p1459
sS'N'
S'Arsalon Pirzada'
p1460
sg13
g1460
sg14
(lp1461
sa(dp1462
S'e'
S'ppollak@ucsc.edu'
p1463
sg6
(lp1464
sg8
S'Pollak'
p1465
sS'o'
S'12849'
p1466
sS'n'
S'1558668'
p1467
sg12
S'Patrick'
p1468
sS'N'
S'Patrick Pollak'
p1469
sg13
g1469
sg14
(lp1470
sa(dp1471
S'e'
S'chjpowel@ucsc.edu'
p1472
sg6
(lp1473
sg8
S'Powell'
p1474
sS'o'
S'9150'
p1475
sS'n'
S'1452686'
p1476
sg12
S'Christopher'
p1477
sS'N'
S'Christopher Powell'
p1478
sg13
g1478
sg14
(lp1479
sa(dp1480
S'e'
S'gapowell@ucsc.edu'
p1481
sg6
(lp1482
sg8
S'Powell'
p1483
sS'o'
S'4255'
p1484
sS'n'
S'1463182'
p1485
sg12
S'Gabrielle'
p1486
sS'N'
S'Gabrielle Powell'
p1487
sg13
g1487
sg14
(lp1488
sa(dp1489
S'e'
S'mquinley@ucsc.edu'
p1490
sg6
(lp1491
sg8
S'Quinley'
p1492
sS'o'
S'9153'
p1493
sS'n'
S'1452909'
p1494
sg12
S'Morgan'
p1495
sS'N'
S'Morgan Quinley'
p1496
sg13
g1496
sg14
(lp1497
sa(dp1498
S'e'
S'vramared@ucsc.edu'
p1499
sg6
(lp1500
sg8
S'Ramareddi'
p1501
sS'o'
S'6539'
p1502
sS'n'
S'1535346'
p1503
sg12
S'Vineet'
p1504
sS'N'
S'Vineet Ramareddi'
p1505
sg13
g1505
sg14
(lp1506
sa(dp1507
S'e'
S'bramir15@ucsc.edu'
p1508
sg6
(lp1509
sg8
S'Ramirez-Santos'
p1510
sS'o'
S'8993'
p1511
sS'n'
S'1430012'
p1512
sg12
S'Brianna'
p1513
sS'N'
S'Brianna Ramirez-Santos'
p1514
sg13
g1514
sg14
(lp1515
sa(dp1516
S'e'
S'dimirami@ucsc.edu'
p1517
sg6
(lp1518
sg8
S'Ramirez'
p1519
sS'o'
S'8833'
p1520
sS'n'
S'1411743'
p1521
sg12
S'Dinorah'
p1522
sS'N'
S'Dinorah Ramirez'
p1523
sg13
g1523
sg14
(lp1524
sa(dp1525
S'e'
S'lhramire@ucsc.edu'
p1526
sg6
(lp1527
sg8
S'Ramirez'
p1528
sS'o'
S'28385'
p1529
sS'n'
S'1560335'
p1530
sg12
S'Luis'
p1531
sS'N'
S'Luis Ramirez'
p1532
sg13
g1532
sg14
(lp1533
sa(dp1534
S'e'
S'cramosin@ucsc.edu'
p1535
sg6
(lp1536
S'Ramos Iniguez'
p1537
asg8
S'Iniguez'
p1538
sS'o'
S'2716'
p1539
sS'n'
S'1402365'
p1540
sg12
S'Crystal'
p1541
sS'N'
S'Crystal Ramos Iniguez'
p1542
sg13
g1542
sg14
(lp1543
sa(dp1544
S'e'
S'jraya@ucsc.edu'
p1545
sg6
(lp1546
sg8
S'Raya'
p1547
sS'o'
S'1668'
p1548
sS'n'
S'1352506'
p1549
sg12
S'Jaciel'
p1550
sS'N'
S'Jaciel Raya'
p1551
sg13
g1551
sg14
(lp1552
sa(dp1553
S'e'
S'syreitma@ucsc.edu'
p1554
sg6
(lp1555
sg8
S'Reitman'
p1556
sS'o'
S'12529'
p1557
sS'n'
S'1530445'
p1558
sg12
S'Spencer'
p1559
sS'N'
S'Spencer Reitman'
p1560
sg13
g1560
sg14
(lp1561
sa(dp1562
S'e'
S'arejniak@ucsc.edu'
p1563
sg6
(lp1564
sg8
S'Rejniak'
p1565
sS'o'
S'12121'
p1566
sS'n'
S'1488442'
p1567
sg12
S'Anastasia'
p1568
sS'N'
S'Anastasia Rejniak'
p1569
sg13
g1569
sg14
(lp1570
sa(dp1571
S'e'
S'wirice@ucsc.edu'
p1572
sg6
(lp1573
sg8
S'Rice'
p1574
sS'o'
S'30738'
p1575
sS'n'
S''
sg12
S'William'
p1576
sS'N'
S'William Rice'
p1577
sg13
g1577
sg14
(lp1578
sa(dp1579
S'e'
S'cjrichte@ucsc.edu'
p1580
sg6
(lp1581
sg8
S'Richter'
p1582
sS'o'
S'11986'
p1583
sS'n'
S'1472265'
p1584
sg12
S'Carley'
p1585
sS'N'
S'Carley Richter'
p1586
sg13
g1586
sg14
(lp1587
sa(dp1588
S'e'
S'ilrodrig@ucsc.edu'
p1589
sg6
(lp1590
sg8
S'Rodriguez'
p1591
sS'o'
S'4892'
p1592
sS'n'
S'1482504'
p1593
sg12
S'Itandehui'
p1594
sS'N'
S'Itandehui Rodriguez'
p1595
sg13
g1595
sg14
(lp1596
sa(dp1597
S'e'
S'kgrubin@ucsc.edu'
p1598
sg6
(lp1599
sg8
S'Rubin'
p1600
sS'o'
S'4743'
p1601
sS'n'
S'1478324'
p1602
sg12
S'Kelly'
p1603
sS'N'
S'Kelly Rubin'
p1604
sg13
g1604
sg14
(lp1605
sa(dp1606
S'e'
S'bmrubio@ucsc.edu'
p1607
sg6
(lp1608
sg8
S'Rubio'
p1609
sS'o'
S'14247'
p1610
sS'n'
S'1425285'
p1611
sg12
S'Brandy'
p1612
sS'N'
S'Brandy Rubio'
p1613
sg13
g1613
sg14
(lp1614
sa(dp1615
S'e'
S'mhsabbah@ucsc.edu'
p1616
sg6
(lp1617
sg8
S'Sabbah'
p1618
sS'o'
S'7345'
p1619
sS'n'
S'1559929'
p1620
sg12
S'Micah'
p1621
sS'N'
S'Micah Sabbah'
p1622
sg13
g1622
sg14
(lp1623
sa(dp1624
S'e'
S'msahasra@ucsc.edu'
p1625
sg6
(lp1626
sg8
S'Sahasrabudhe'
p1627
sS'o'
S'9395'
p1628
sS'n'
S'1477838'
p1629
sg12
S'Manjiri'
p1630
sS'N'
S'Manjiri Sahasrabudhe'
p1631
sg13
g1631
sg14
(lp1632
sa(dp1633
S'e'
S'esesando@ucsc.edu'
p1634
sg6
(lp1635
sg8
S'Sandoval'
p1636
sS'o'
S'14589'
p1637
sS'n'
S'1468718'
p1638
sg12
S'Esmeralda'
p1639
sS'N'
S'Esmeralda Sandoval'
p1640
sg13
g1640
sg14
(lp1641
sa(dp1642
S'e'
S'mshedd@ucsc.edu'
p1643
sg6
(lp1644
sg8
S'Shedd'
p1645
sS'o'
S'4404'
p1646
sS'n'
S'1466446'
p1647
sg12
S'Madeleine'
p1648
sS'N'
S'Madeleine Shedd'
p1649
sg13
g1649
sg14
(lp1650
sa(dp1651
S'e'
S'cnshephe@ucsc.edu'
p1652
sg6
(lp1653
sg8
S'Shepherd'
p1654
sS'o'
S'19728'
p1655
sS'n'
S'1450640'
p1656
sg12
S'Chanelle'
p1657
sS'N'
S'Chanelle Shepherd'
p1658
sg13
g1658
sg14
(lp1659
sa(dp1660
S'e'
S'rjsheth@ucsc.edu'
p1661
sg6
(lp1662
sg8
S'Sheth'
p1663
sS'o'
S'19851'
p1664
sS'n'
S'1463984'
p1665
sg12
S'Ruchi'
p1666
sS'N'
S'Ruchi Sheth'
p1667
sg13
g1667
sg14
(lp1668
sa(dp1669
S'e'
S'msilvago@ucsc.edu'
p1670
sg6
(lp1671
S'Silva Gomez'
p1672
asg8
S'Gomez'
p1673
sS'o'
S'4133'
p1674
sS'n'
S'1457640'
p1675
sg12
S'Maria'
p1676
sS'N'
S'Maria Silva Gomez'
p1677
sg13
g1677
sg14
(lp1678
sa(dp1679
S'e'
S'cosilva@ucsc.edu'
p1680
sg6
(lp1681
sg8
S'Silva'
p1682
sS'o'
S'2715'
p1683
sS'n'
S'1402296'
p1684
sg12
S'Connie'
p1685
sS'N'
S'Connie Silva'
p1686
sg13
g1686
sg14
(lp1687
sa(dp1688
S'e'
S'ssmarduc@ucsc.edu'
p1689
sg6
(lp1690
sg8
S'Smarduch'
p1691
sS'o'
S'11997'
p1692
sS'n'
S'1476291'
p1693
sg12
S'Steve'
p1694
sS'N'
S'Steve Smarduch'
p1695
sg13
g1695
sg14
(lp1696
sa(dp1697
S'e'
S'amkismit@ucsc.edu'
p1698
sg6
(lp1699
sg8
S'Smith'
p1700
sS'o'
S'17012'
p1701
sS'n'
S'1441084'
p1702
sg12
S'Amber'
p1703
sS'N'
S'Amber Smith'
p1704
sg13
g1704
sg14
(lp1705
sa(dp1706
S'e'
S'isolovie@ucsc.edu'
p1707
sg6
(lp1708
sg8
S'Solovieva'
p1709
sS'o'
S'14497'
p1710
sS'n'
S'1458852'
p1711
sg12
S'Irina'
p1712
sS'N'
S'Irina Solovieva'
p1713
sg13
g1713
sg14
(lp1714
sa(dp1715
S'e'
S'ssoti@ucsc.edu'
p1716
sg6
(lp1717
sg8
S'Soti'
p1718
sS'o'
S'11960'
p1719
sS'n'
S'1471320'
p1720
sg12
S'Sakshi'
p1721
sS'N'
S'Sakshi Soti'
p1722
sg13
g1722
sg14
(lp1723
sa(dp1724
S'e'
S'isousa@ucsc.edu'
p1725
sg6
(lp1726
sg8
S'Sousa'
p1727
sS'o'
S'16754'
p1728
sS'n'
S'1411339'
p1729
sg12
S'Ingrid'
p1730
sS'N'
S'Ingrid Sousa'
p1731
sg13
g1731
sg14
(lp1732
sa(dp1733
S'e'
S'atstarks@ucsc.edu'
p1734
sg6
(lp1735
sg8
S'Starks'
p1736
sS'o'
S'11764'
p1737
sS'n'
S'1449827'
p1738
sg12
S'Akira'
p1739
sS'N'
S'Akira Starks'
p1740
sg13
g1740
sg14
(lp1741
sa(dp1742
S'e'
S'mostarr@ucsc.edu'
p1743
sg6
(lp1744
sg8
S'Starr'
p1745
sS'o'
S'26825'
p1746
sS'n'
S'1592347'
p1747
sg12
S'Max'
p1748
sS'N'
S'Max Starr'
p1749
sg13
g1749
sg14
(lp1750
sa(dp1751
S'e'
S'nnsuleim@ucsc.edu'
p1752
sg6
(lp1753
sg8
S'Suleiman'
p1754
sS'o'
S'4142'
p1755
sS'n'
S'1457804'
p1756
sg12
S'Naser'
p1757
sS'N'
S'Naser Suleiman'
p1758
sg13
g1758
sg14
(lp1759
sa(dp1760
S'e'
S'ssuriya@ucsc.edu'
p1761
sg6
(lp1762
sg8
S'Suriya'
p1763
sS'o'
S'28105'
p1764
sS'n'
S'1613411'
p1765
sg12
S'Sharu'
p1766
sS'N'
S'Sharu Suriya'
p1767
sg13
g1767
sg14
(lp1768
sa(dp1769
S'e'
S'rsveiven@ucsc.edu'
p1770
sg6
(lp1771
sg8
S'Sveiven'
p1772
sS'o'
S'20679'
p1773
sS'n'
S'1541389'
p1774
sg12
S'Rachel'
p1775
sS'N'
S'Rachel Sveiven'
p1776
sg13
g1776
sg14
(lp1777
sa(dp1778
S'e'
S'mtabor@ucsc.edu'
p1779
sg6
(lp1780
sg8
S'Tabor'
p1781
sS'o'
S'27628'
p1782
sS'n'
S'1483255'
p1783
sg12
S'Mireya'
p1784
sS'N'
S'Mireya Tabor'
p1785
sg13
g1785
sg14
(lp1786
sa(dp1787
S'e'
S'mrtakeuc@ucsc.edu'
p1788
sg6
(lp1789
sg8
S'Takeuchi'
p1790
sS'o'
S'4599'
p1791
sS'n'
S'1475770'
p1792
sg12
S'Rick'
p1793
sS'N'
S'Rick Takeuchi'
p1794
sg13
g1794
sg14
(lp1795
sa(dp1796
S'e'
S'mtardy@ucsc.edu'
p1797
sg6
(lp1798
sg8
S'Tardy'
p1799
sS'o'
S'8914'
p1800
sS'n'
S'1421166'
p1801
sg12
S'Morgan'
p1802
sS'N'
S'Morgan Tardy'
p1803
sg13
g1803
sg14
(lp1804
sa(dp1805
S'e'
S'pmthao@ucsc.edu'
p1806
sg6
(lp1807
sg8
S'Thao'
p1808
sS'o'
S'3318'
p1809
sS'n'
S'1422306'
p1810
sg12
S'Phaorenzia'
p1811
sS'N'
S'Phaorenzia Thao'
p1812
sg13
g1812
sg14
(lp1813
sa(dp1814
S'e'
S'sthirtya@ucsc.edu'
p1815
sg6
(lp1816
sg8
S'Thirtyacre'
p1817
sS'o'
S'16853'
p1818
sS'n'
S'1421457'
p1819
sg12
S'Spencer'
p1820
sS'N'
S'Spencer Thirtyacre'
p1821
sg13
g1821
sg14
(lp1822
sa(dp1823
S'e'
S'sthornbu@ucsc.edu'
p1824
sg6
(lp1825
sg8
S'Thornburg'
p1826
sS'o'
S'14682'
p1827
sS'n'
S'1476698'
p1828
sg12
S'Sarah'
p1829
sS'N'
S'Sarah Thornburg'
p1830
sg13
g1830
sg14
(lp1831
sa(dp1832
S'e'
S'sthottem@ucsc.edu'
p1833
sg6
(lp1834
sg8
S'Thottempudi'
p1835
sS'o'
S'11865'
p1836
sS'n'
S'1462081'
p1837
sg12
S'Santan'
p1838
sS'N'
S'Santan Thottempudi'
p1839
sg13
g1839
sg14
(lp1840
sa(dp1841
S'e'
S'amaitran@ucsc.edu'
p1842
sg6
(lp1843
sg8
S'Tran'
p1844
sS'o'
S'17164'
p1845
sS'n'
S'1461813'
p1846
sg12
S'Amy'
p1847
sS'N'
S'Amy Tran'
p1848
sg13
g1848
sg14
(lp1849
sa(dp1850
S'e'
S'atran16@ucsc.edu'
p1851
sg6
(lp1852
sg8
S'Tran'
p1853
sS'o'
S'14094'
p1854
sS'n'
S'1285745'
p1855
sg12
S'An'
p1856
sS'N'
S'An Tran'
p1857
sg13
g1857
sg14
(lp1858
sa(dp1859
S'e'
S'btran15@ucsc.edu'
p1860
sg6
(lp1861
sg8
S'Tran'
p1862
sS'o'
S'5862'
p1863
sS'n'
S'1408421'
p1864
sg12
S'Brian'
p1865
sS'N'
S'Brian Tran'
p1866
sg13
g1866
sg14
(lp1867
sa(dp1868
S'e'
S'caatran@ucsc.edu'
p1869
sg6
(lp1870
sg8
S'Tran'
p1871
sS'o'
S'23716'
p1872
sS'n'
S'1596561'
p1873
sg12
S'Cassandra'
p1874
sS'N'
S'Cassandra Tran'
p1875
sg13
g1875
sg14
(lp1876
sa(dp1877
S'e'
S'patran@ucsc.edu'
p1878
sg6
(lp1879
sg8
S'Tran'
p1880
sS'o'
S'11926'
p1881
sS'n'
S'1467010'
p1882
sg12
S'Pauline'
p1883
sS'N'
S'Pauline Tran'
p1884
sg13
g1884
sg14
(lp1885
sa(dp1886
S'e'
S'jtressel@ucsc.edu'
p1887
sg6
(lp1888
sg8
S'Tressel'
p1889
sS'o'
S'10066'
p1890
sS'n'
S'1540625'
p1891
sg12
S'John'
p1892
sS'N'
S'John Tressel'
p1893
sg13
g1893
sg14
(lp1894
sa(dp1895
S'e'
S'joptrinh@ucsc.edu'
p1896
sg6
(lp1897
sg8
S'Trinh'
p1898
sS'o'
S'7042'
p1899
sS'n'
S'1548029'
p1900
sg12
S'Joanne'
p1901
sS'N'
S'Joanne Trinh'
p1902
sg13
g1902
sg14
(lp1903
sa(dp1904
S'e'
S'mavarela@ucsc.edu'
p1905
sg6
(lp1906
sg8
S'Varela'
p1907
sS'o'
S'14512'
p1908
sS'n'
S'1460626'
p1909
sg12
S'Manuel'
p1910
sS'N'
S'Manuel Varela'
p1911
sg13
g1911
sg14
(lp1912
sa(dp1913
S'e'
S'yavasque@ucsc.edu'
p1914
sg6
(lp1915
sg8
S'Vasquez'
p1916
sS'o'
S'20023'
p1917
sS'n'
S'1478808'
p1918
sg12
S'Yvonne'
p1919
sS'N'
S'Yvonne Vasquez'
p1920
sg13
g1920
sg14
(lp1921
sa(dp1922
S'e'
S'vavillac@ucsc.edu'
p1923
sg6
(lp1924
sg8
S'Villacarte'
p1925
sS'o'
S'4611'
p1926
sS'n'
S'1475873'
p1927
sg12
S'Vanessa'
p1928
sS'N'
S'Vanessa Villacarte'
p1929
sg13
g1929
sg14
(lp1930
sa(dp1931
S'e'
S'sqvuong@ucsc.edu'
p1932
sg6
(lp1933
sg8
S'Vuong'
p1934
sS'o'
S'20109'
p1935
sS'n'
S'1487682'
p1936
sg12
S'Suzanne'
p1937
sS'N'
S'Suzanne Vuong'
p1938
sg13
g1938
sg14
(lp1939
sa(dp1940
S'e'
S'jadywalk@ucsc.edu'
p1941
sg6
(lp1942
sg8
S'Walker'
p1943
sS'o'
S'8991'
p1944
sS'n'
S'1429467'
p1945
sg12
S'Jamie'
p1946
sS'N'
S'Jamie Walker'
p1947
sg13
g1947
sg14
(lp1948
sa(dp1949
S'e'
S'kaswang@ucsc.edu'
p1950
sg6
(lp1951
sg8
S'Wang'
p1952
sS'o'
S'19552'
p1953
sS'n'
S'1428673'
p1954
sg12
S'Kalen'
p1955
sS'N'
S'Kalen Wang'
p1956
sg13
g1956
sg14
(lp1957
sa(dp1958
S'e'
S'twang84@ucsc.edu'
p1959
sg6
(lp1960
sg8
S'Wang'
p1961
sS'o'
S'29063'
p1962
sS'n'
S'1561061'
p1963
sg12
S'Tingying'
p1964
sS'N'
S'Tingying Wang'
p1965
sg13
g1965
sg14
(lp1966
sa(dp1967
S'e'
S'pwargo@ucsc.edu'
p1968
sg6
(lp1969
sg8
S'Wargo'
p1970
sS'o'
S'29222'
p1971
sS'n'
S'1325553'
p1972
sg12
S'Peter'
p1973
sS'N'
S'Peter Wargo'
p1974
sg13
g1974
sg14
(lp1975
sa(dp1976
S'e'
S'fwhitcom@ucsc.edu'
p1977
sg6
(lp1978
sg8
S'Whitcomb'
p1979
sS'o'
S'20052'
p1980
sS'n'
S'1481295'
p1981
sg12
S'Finley'
p1982
sS'N'
S'Finley Whitcomb'
p1983
sg13
g1983
sg14
(lp1984
sa(dp1985
S'e'
S'kwhtie@ucsc.edu'
p1986
sg6
(lp1987
sg8
S'White'
p1988
sS'o'
S'18301'
p1989
sS'n'
S'1398354'
p1990
sg12
S'Kristin'
p1991
sS'N'
S'Kristin White'
p1992
sg13
g1992
sg14
(lp1993
sa(dp1994
S'e'
S'dtwilder@ucsc.edu'
p1995
sg6
(lp1996
sg8
S'Wilder'
p1997
sS'o'
S'11923'
p1998
sS'n'
S'1466214'
p1999
sg12
S'Dana'
p2000
sS'N'
S'Dana Wilder'
p2001
sg13
g2001
sg14
(lp2002
sa(dp2003
S'e'
S'bkwillia@ucsc.edu'
p2004
sg6
(lp2005
sg8
S'Williams'
p2006
sS'o'
S'5764'
p2007
sS'n'
S'1510903'
p2008
sg12
S'Briana'
p2009
sS'N'
S'Briana Williams'
p2010
sg13
g2010
sg14
(lp2011
sa(dp2012
S'e'
S'kawillis@ucsc.edu'
p2013
sg6
(lp2014
sg8
S'Willis'
p2015
sS'o'
S'20066'
p2016
sS'n'
S'1483080'
p2017
sg12
S'Kristopher'
p2018
sS'N'
S'Kristopher Willis'
p2019
sg13
g2019
sg14
(lp2020
sa(dp2021
S'e'
S'amlwong@ucsc.edu'
p2022
sg6
(lp2023
sg8
S'Wong'
p2024
sS'o'
S'11434'
p2025
sS'n'
S'1410966'
p2026
sg12
S'Amy'
p2027
sS'N'
S'Amy Wong'
p2028
sg13
g2028
sg14
(lp2029
sa(dp2030
S'e'
S'astwong@ucsc.edu'
p2031
sg6
(lp2032
sg8
S'Wong'
p2033
sS'o'
S'19621'
p2034
sS'n'
S'1435195'
p2035
sg12
S'Ashley'
p2036
sS'N'
S'Ashley Wong'
p2037
sg13
g2037
sg14
(lp2038
sa(dp2039
S'e'
S'twong29@ucsc.edu'
p2040
sg6
(lp2041
sg8
S'Wong'
p2042
sS'o'
S'19853'
p2043
sS'n'
S'1463682'
p2044
sg12
S'Trucilla'
p2045
sS'N'
S'Trucilla Wong'
p2046
sg13
g2046
sg14
(lp2047
sa(dp2048
S'e'
S'slwoodru@ucsc.edu'
p2049
sg6
(lp2050
sg8
S'Woodruff'
p2051
sS'o'
S'4643'
p2052
sS'n'
S'1475039'
p2053
sg12
S'Shania'
p2054
sS'N'
S'Shania Woodruff'
p2055
sg13
g2055
sg14
(lp2056
sa(dp2057
S'e'
S'wixu@ucsc.edu'
p2058
sg6
(lp2059
sg8
S'Xu'
p2060
sS'o'
S'20980'
p2061
sS'n'
S'1564588'
p2062
sg12
S'William'
p2063
sS'N'
S'William Xu'
p2064
sg13
g2064
sg14
(lp2065
sa(dp2066
S'e'
S'leyee@ucsc.edu'
p2067
sg6
(lp2068
sg8
S'Yee'
p2069
sS'o'
S'12167'
p2070
sS'n'
S'1493694'
p2071
sg12
S'Lauren'
p2072
sS'N'
S'Lauren Yee'
p2073
sg13
g2073
sg14
(lp2074
sa(dp2075
S'e'
S'thyip@ucsc.edu'
p2076
sg6
(lp2077
sg8
S'Yip'
p2078
sS'o'
S'28964'
p2079
sS'n'
S'1368085'
p2080
sg12
S'Thomas'
p2081
sS'N'
S'Thomas Yip'
p2082
sg13
g2082
sg14
(lp2083
sa(dp2084
S'e'
S'shyiu@ucsc.edu'
p2085
sg6
(lp2086
sg8
S'Yiu'
p2087
sS'o'
S'2652'
p2088
sS'n'
S'1400404'
p2089
sg12
S'Sharon'
p2090
sS'N'
S'Sharon Yiu'
p2091
sg13
g2091
sg14
(lp2092
sa(dp2093
S'e'
S'eyu9@ucsc.edu'
p2094
sg6
(lp2095
sg8
S'Yu'
p2096
sS'o'
S'4277'
p2097
sS'n'
S'1463342'
p2098
sg12
S'Edmund'
p2099
sS'N'
S'Edmund Yu'
p2100
sg13
g2100
sg14
(lp2101
sa(dp2102
S'e'
S'azada@ucsc.edu'
p2103
sg6
(lp2104
sg8
S'Zada'
p2105
sS'o'
S'11578'
p2106
sS'n'
S'1426752'
p2107
sg12
S'Andrawis'
p2108
sS'N'
S'Andrawis Zada'
p2109
sg13
g2109
sg14
(lp2110
sa(dp2111
S'e'
S'sazeng@ucsc.edu'
p2112
sg6
(lp2113
sg8
S'Zeng'
p2114
sS'o'
S'17252'
p2115
sS'n'
S'1471982'
p2116
sg12
S'Sandy'
p2117
sS'N'
S'Sandy Zeng'
p2118
sg13
g2118
sg14
(lp2119
sa(dp2120
S'e'
S'skzhou@ucsc.edu'
p2121
sg6
(lp2122
sg8
S'Zhou'
p2123
sS'o'
S'4410'
p2124
sS'n'
S'1467166'
p2125
sg12
S'Simon'
p2126
sS'N'
S'Simon Zhou'
p2127
sg13
g2127
sg14
(lp2128
sa(dp2129
S'e'
S'mzia@ucsc.edu'
p2130
sg6
(lp2131
sg8
S'Zia'
p2132
sS'o'
S'17195'
p2133
sS'n'
S'1465158'
p2134
sg12
S'Mona'
p2135
sS'N'
S'Mona Zia'
p2136
sg13
g2136
sg14
(lp2137
sasS'name'
p2138
S'Phys6C'
p2139
sS'roster'
p2140
(dp2141
g1826
(dp2142
g1829
g1823
ssg802
(dp2143
g805
g799
ssg1916
(dp2144
g1919
g1913
ssg612
(dp2145
g615
g609
ssg739
(dp2146
g742
g736
ssg548
(dp2147
g551
g545
ssg1700
(dp2148
g1703
g1697
ssg1663
(dp2149
g1666
g1660
ssg811
(dp2150
g814
g808
ssg264
(dp2151
g267
g261
ssg65
(dp2152
g68
g62
ssg956
(dp2153
g959
g953
ssg2132
(dp2154
g2135
g2129
ssg1988
(dp2155
g1991
g1985
ssg1474
(dp2156
g1477
g1471
sg1486
g1480
ssg309
(dp2157
g312
g306
ssg237
(dp2158
g240
g234
ssg2123
(dp2159
g2126
g2120
ssg1582
(dp2160
g1585
g1579
ssg1754
(dp2161
g1757
g1751
ssg1221
(dp2162
g1224
g1218
ssg46
(dp2163
g49
g43
ssg1393
(dp2164
g1396
g1390
ssg1266
(dp2165
g1269
g1263
ssg639
(dp2166
g651
g645
sg642
g636
ssg512
(dp2167
g515
g509
ssg1293
(dp2168
g1296
g1290
ssg9
(dp2169
g9
g4
ssg1375
(dp2170
g1378
g1372
ssg539
(dp2171
g542
g536
ssg911
(dp2172
g914
g908
ssg712
(dp2173
g715
g708
ssg1645
(dp2174
g1648
g1642
ssg1538
(dp2175
g1541
g1534
ssg557
(dp2176
g560
g554
ssg273
(dp2177
g276
g270
ssg1808
(dp2178
g1811
g1805
ssg621
(dp2179
g624
g618
ssg164
(dp2180
g167
g161
ssg128
(dp2181
g131
g125
ssg1618
(dp2182
g1621
g1615
ssg666
(dp2183
g669
g663
ssg1140
(dp2184
g1143
g1137
ssg209
(dp2185
g212
g206
ssg1429
(dp2186
g1432
g1426
ssg19
(dp2187
g22
g16
ssg657
(dp2188
g660
g654
ssg318
(dp2189
g321
g315
ssg838
(dp2190
g841
g835
ssg200
(dp2191
g203
g197
ssg137
(dp2192
g140
g134
ssg675
(dp2193
g678
g672
ssg1185
(dp2194
g1188
g1182
ssg119
(dp2195
g122
g116
ssg1230
(dp2196
g1233
g1227
ssg847
(dp2197
g850
g844
sg859
g853
ssg566
(dp2198
g569
g563
ssg1574
(dp2199
g1576
g1571
ssg1167
(dp2200
g1170
g1164
ssg1799
(dp2201
g1802
g1796
ssg2105
(dp2202
g2108
g2102
ssg775
(dp2203
g778
g772
ssg730
(dp2204
g733
g727
ssg1654
(dp2205
g1657
g1651
ssg327
(dp2206
g330
g324
ssg110
(dp2207
g113
g107
ssg1556
(dp2208
g1559
g1553
ssg1248
(dp2209
g1251
g1245
ssg1889
(dp2210
g1892
g1886
ssg1636
(dp2211
g1639
g1633
ssg1212
(dp2212
g1215
g1209
ssg282
(dp2213
g285
g279
ssg829
(dp2214
g832
g826
ssg494
(dp2215
g497
g491
ssg409
(dp2216
g412
g406
sg421
g415
ssg920
(dp2217
g923
g917
ssg1501
(dp2218
g1504
g1498
ssg1095
(dp2219
g1098
g1092
sg1107
g1101
ssg155
(dp2220
g158
g152
ssg757
(dp2221
g760
g754
ssg965
(dp2222
g968
g962
ssg1447
(dp2223
g1450
g1444
ssg1194
(dp2224
g1197
g1191
ssg1763
(dp2225
g1766
g1760
ssg391
(dp2226
g394
g388
ssg455
(dp2227
g458
g452
ssg255
(dp2228
g258
g252
ssg101
(dp2229
g104
g98
ssg2069
(dp2230
g2072
g2066
ssg702
(dp2231
g705
g699
ssg1925
(dp2232
g1928
g1922
ssg1817
(dp2233
g1820
g1814
ssg1673
(dp2234
g1676
g1669
ssg1203
(dp2235
g1206
g1200
ssg766
(dp2236
g769
g763
ssg1411
(dp2237
g1414
g1408
ssg1682
(dp2238
g1685
g1679
ssg1239
(dp2239
g1242
g1236
ssg530
(dp2240
g533
g527
ssg2015
(dp2241
g2018
g2012
ssg1384
(dp2242
g1387
g1381
ssg1718
(dp2243
g1721
g1715
ssg2087
(dp2244
g2090
g2084
ssg1113
(dp2245
g1116
g1110
ssg74
(dp2246
g77
g71
ssg2078
(dp2247
g2081
g2075
ssg228
(dp2248
g231
g224
ssg1745
(dp2249
g1748
g1742
ssg1898
(dp2250
g1901
g1895
ssg1357
(dp2251
g1360
g1354
ssg1970
(dp2252
g1973
g1967
ssg892
(dp2253
g905
g898
sg895
g889
ssg820
(dp2254
g823
g817
ssg83
(dp2255
g86
g80
ssg1122
(dp2256
g1125
g1119
ssg476
(dp2257
g479
g471
ssg503
(dp2258
g506
g500
ssg865
(dp2259
g868
g862
ssg246
(dp2260
g249
g243
ssg427
(dp2261
g430
g424
ssg146
(dp2262
g149
g143
ssg1691
(dp2263
g1694
g1688
ssg748
(dp2264
g751
g745
ssg630
(dp2265
g633
g627
ssg521
(dp2266
g524
g518
ssg485
(dp2267
g488
g482
ssg1302
(dp2268
g1305
g1299
sg1315
g1308
sg1333
g1327
sg1351
g1345
sg1342
g1336
sg1324
g1318
ssg883
(dp2269
g886
g880
ssg1456
(dp2270
g1459
g1453
ssg1438
(dp2271
g1441
g1435
ssg182
(dp2272
g185
g179
ssg575
(dp2273
g578
g572
ssg364
(dp2274
g367
g361
ssg373
(dp2275
g376
g370
ssg1943
(dp2276
g1946
g1940
ssg382
(dp2277
g385
g379
ssg693
(dp2278
g696
g690
ssg1727
(dp2279
g1730
g1724
ssg1997
(dp2280
g2000
g1994
ssg1591
(dp2281
g1594
g1588
ssg436
(dp2282
g439
g433
ssg173
(dp2283
g176
g170
ssg1030
(dp2284
g1033
g1027
ssg1158
(dp2285
g1161
g1155
ssg1934
(dp2286
g1937
g1931
ssg1547
(dp2287
g1550
g1544
ssg1048
(dp2288
g1051
g1045
ssg1465
(dp2289
g1468
g1462
ssg2060
(dp2290
g2063
g2057
ssg984
(dp2291
g987
g981
ssg291
(dp2292
g294
g288
ssg1510
(dp2293
g1513
g1507
ssg56
(dp2294
g59
g52
ssg191
(dp2295
g194
g188
ssg1066
(dp2296
g1069
g1063
ssg1076
(dp2297
g1079
g1072
ssg1257
(dp2298
g1260
g1254
ssg584
(dp2299
g587
g581
ssg1086
(dp2300
g1089
g1082
ssg1609
(dp2301
g1612
g1606
ssg1600
(dp2302
g1603
g1597
ssg1736
(dp2303
g1739
g1733
ssg1709
(dp2304
g1712
g1706
ssg784
(dp2305
g787
g781
sg796
g790
ssg28
(dp2306
g31
g25
ssg2006
(dp2307
g2009
g2003
ssg1402
(dp2308
g1405
g1399
ssg465
(dp2309
g468
g461
ssg1772
(dp2310
g1775
g1769
ssg1057
(dp2311
g1060
g1054
ssg975
(dp2312
g978
g971
ssg1492
(dp2313
g1495
g1489
ssg2051
(dp2314
g2054
g2048
ssg300
(dp2315
g303
g297
ssg400
(dp2316
g403
g397
ssg929
(dp2317
g932
g926
ssg993
(dp2318
g996
g990
ssg2096
(dp2319
g2099
g2093
ssg1420
(dp2320
g1423
g1417
ssg938
(dp2321
g941
g935
ssg1366
(dp2322
g1369
g1363
ssg37
(dp2323
g40
g34
ssg1565
(dp2324
g1568
g1562
ssg1039
(dp2325
g1042
g1036
ssg336
(dp2326
g339
g333
sg349
g342
ssg603
(dp2327
g606
g600
ssg1844
(dp2328
g1847
g1841
sg1865
g1859
sg1856
g1850
sg1883
g1877
sg1874
g1868
ssg1519
(dp2329
g1531
g1525
sg1522
g1516
ssg721
(dp2330
g724
g718
ssg1275
(dp2331
g1278
g1272
ssg2024
(dp2332
g2027
g2021
sg2045
g2039
sg2036
g2030
ssg1627
(dp2333
g1630
g1624
ssg594
(dp2334
g597
g590
ssg1149
(dp2335
g1152
g1146
ssg1131
(dp2336
g1134
g1128
ssg874
(dp2337
g877
g871
ssg1003
(dp2338
g1024
g1018
sg1015
g1009
sg1006
g999
ssg1790
(dp2339
g1793
g1787
ssg1952
(dp2340
g1955
g1949
sg1964
g1958
ssg92
(dp2341
g95
g89
ssg684
(dp2342
g687
g681
ssg1176
(dp2343
g1179
g1173
ssg1979
(dp2344
g1982
g1976
ssg1781
(dp2345
g1784
g1778
ssg947
(dp2346
g950
g944
ssg2114
(dp2347
g2117
g2111
ssg218
(dp2348
g221
g215
ssg446
(dp2349
g449
g442
ssg1907
(dp2350
g1910
g1904
ssg355
(dp2351
g358
g352
ssg1835
(dp2352
g1838
g1832
ssg1284
(dp2353
g1287
g1281
sssS'corrections'
p2354
(dp2355
sS'nameformat'
p2356
S'onecolumn'
p2357
sS'idcolumn'
p2358
I2
sS'newcorrections'
p2359
(dp2360
(S'Abe'
S'Calf'
tp2361
(lp2362
g19
ag22
as(S'Abel'
S'Calvan'
tp2363
(lp2364
g19
ag22
as(S'Feline'
S'Jess'
tp2365
(lp2366
g621
ag624
as(S'Mike'
S'Hairless'
tp2367
(lp2368
g657
ag660
as(S'Alex'
S'Calvin'
tp2369
(lp2370
g621
ag624
as(S'Abel'
S'Calf'
tp2371
(lp2372
g19
ag22
as(S'Alex'
S'Calf'
tp2373
(lp2374
g621
ag624
assS'ID'
p2375
(dp2376
S''
(g1574
g1576
tp2377
sg614
(g612
g615
tp2378
sg148
(g146
g149
tp2379
sg1413
(g1411
g1414
tp2380
sg1014
(g1012
g1015
tp2381
sg175
(g173
g176
tp2382
sg357
(g355
g358
tp2383
sg1954
(g1952
g1955
tp2384
sg266
(g264
g267
tp2385
sg786
(g784
g787
tp2386
sg1629
(g1627
g1630
tp2387
sg338
(g336
g339
tp2388
sg1431
(g1429
g1432
tp2389
sg411
(g409
g412
tp2390
sg1160
(g1158
g1161
tp2391
sg1549
(g1547
g1550
tp2392
sg514
(g512
g515
tp2393
sg2053
(g2051
g2054
tp2394
sg1638
(g1636
g1639
tp2395
sg1540
(g1538
g1541
tp2396
sg1558
(g1556
g1559
tp2397
sg302
(g300
g303
tp2398
sg284
(g282
g285
tp2399
sg375
(g373
g376
tp2400
sg457
(g455
g458
tp2401
sg2062
(g2060
g2063
tp2402
sg668
(g666
g669
tp2403
sg1223
(g1221
g1224
tp2404
sg1792
(g1790
g1793
tp2405
sg2026
(g2024
g2027
tp2406
sg795
(g793
g796
tp2407
sg1187
(g1185
g1188
tp2408
sg1900
(g1898
g1901
tp2409
sg1584
(g1582
g1585
tp2410
sg1404
(g1402
g1405
tp2411
sg202
(g200
g203
tp2412
sg1467
(g1465
g1468
tp2413
sg2134
(g2132
g2135
tp2414
sg257
(g255
g258
tp2415
sg1151
(g1149
g1152
tp2416
sg1810
(g1808
g1811
tp2417
sg1611
(g1609
g1612
tp2418
sg1232
(g1230
g1233
tp2419
sg39
(g37
g40
tp2420
sg220
(g218
g221
tp2421
sg2044
(g2042
g2045
tp2422
sg1005
(g1003
g1006
tp2423
sg686
(g684
g687
tp2424
sg804
(g802
g805
tp2425
sg1050
(g1048
g1051
tp2426
sg2125
(g2123
g2126
tp2427
sg1593
(g1591
g1594
tp2428
sg166
(g164
g167
tp2429
sg112
(g110
g113
tp2430
sg496
(g494
g497
tp2431
sg239
(g237
g240
tp2432
sg559
(g557
g560
tp2433
sg1106
(g1104
g1107
tp2434
sg1756
(g1754
g1757
tp2435
sg1602
(g1600
g1603
tp2436
sg21
(g19
g22
tp2437
sg813
(g811
g814
tp2438
sg967
(g965
g968
tp2439
sg94
(g92
g95
tp2440
sg438
(g436
g439
tp2441
sg1665
(g1663
g1666
tp2442
sg429
(g427
g430
tp2443
sg2098
(g2096
g2099
tp2444
sg1963
(g1961
g1964
tp2445
sg184
(g182
g185
tp2446
sg750
(g748
g751
tp2447
sg1476
(g1474
g1477
tp2448
sg523
(g521
g524
tp2449
sg568
(g566
g569
tp2450
sg1323
(g1321
g1324
tp2451
sg157
(g155
g158
tp2452
sg1169
(g1167
g1170
tp2453
sg1250
(g1248
g1251
tp2454
sg723
(g721
g724
tp2455
sg505
(g503
g506
tp2456
sg1359
(g1357
g1360
tp2457
sg1142
(g1140
g1143
tp2458
sg76
(g74
g77
tp2459
sg704
(g702
g705
tp2460
sg121
(g119
g122
tp2461
sg1023
(g1021
g1024
tp2462
sg1178
(g1176
g1179
tp2463
sg1819
(g1817
g1820
tp2464
sg605
(g603
g606
tp2465
sg1936
(g1934
g1937
tp2466
sg139
(g137
g140
tp2467
sg1747
(g1745
g1748
tp2468
sg632
(g630
g633
tp2469
sg2071
(g2069
g2072
tp2470
sg193
(g191
g194
tp2471
sg1567
(g1565
g1568
tp2472
sg1059
(g1057
g1060
tp2473
sg1088
(g1086
g1089
tp2474
sg11
(g9
g9
tp2475
sg1918
(g1916
g1919
tp2476
sg1909
(g1907
g1910
tp2477
sg1205
(g1203
g1206
tp2478
sg577
(g575
g578
tp2479
sg2017
(g2015
g2018
tp2480
sg1503
(g1501
g1504
tp2481
sg858
(g856
g859
tp2482
sg1999
(g1997
g2000
tp2483
sg931
(g929
g932
tp2484
sg478
(g476
g479
tp2485
sg1422
(g1420
g1423
tp2486
sg1341
(g1339
g1342
tp2487
sg467
(g465
g468
tp2488
sg1521
(g1519
g1522
tp2489
sg541
(g539
g542
tp2490
sg714
(g712
g715
tp2491
sg1864
(g1862
g1865
tp2492
sg48
(g46
g49
tp2493
sg1846
(g1844
g1847
tp2494
sg849
(g847
g850
tp2495
sg1214
(g1212
g1215
tp2496
sg1530
(g1528
g1531
tp2497
sg695
(g693
g696
tp2498
sg1693
(g1691
g1694
tp2499
sg1873
(g1871
g1874
tp2500
sg393
(g391
g394
tp2501
sg1927
(g1925
g1928
tp2502
sg650
(g648
g651
tp2503
sg1684
(g1682
g1685
tp2504
sg1286
(g1284
g1287
tp2505
sg1855
(g1853
g1856
tp2506
sg885
(g883
g886
tp2507
sg248
(g246
g249
tp2508
sg1124
(g1122
g1125
tp2509
sg1068
(g1066
g1069
tp2510
sg130
(g128
g131
tp2511
sg913
(g911
g914
tp2512
sg659
(g657
g660
tp2513
sg1097
(g1095
g1098
tp2514
sg1295
(g1293
g1296
tp2515
sg1314
(g1312
g1315
tp2516
sg1458
(g1456
g1459
tp2517
sg894
(g892
g895
tp2518
sg1259
(g1257
g1260
tp2519
sg1972
(g1970
g1973
tp2520
sg1041
(g1039
g1042
tp2521
sg320
(g318
g321
tp2522
sg67
(g65
g68
tp2523
sg741
(g739
g742
tp2524
sg1837
(g1835
g1838
tp2525
sg366
(g364
g367
tp2526
sg1494
(g1492
g1495
tp2527
sg831
(g829
g832
tp2528
sg1395
(g1393
g1396
tp2529
sg995
(g993
g996
tp2530
sg1801
(g1799
g1802
tp2531
sg311
(g309
g312
tp2532
sg641
(g639
g642
tp2533
sg1774
(g1772
g1775
tp2534
sg596
(g594
g597
tp2535
sg1738
(g1736
g1739
tp2536
sg420
(g418
g421
tp2537
sg103
(g101
g104
tp2538
sg768
(g766
g769
tp2539
sg1377
(g1375
g1378
tp2540
sg977
(g975
g978
tp2541
sg1702
(g1700
g1703
tp2542
sg384
(g382
g385
tp2543
sg1891
(g1889
g1892
tp2544
sg822
(g820
g823
tp2545
sg532
(g530
g533
tp2546
sg876
(g874
g877
tp2547
sg85
(g83
g86
tp2548
sg1647
(g1645
g1648
tp2549
sg1277
(g1275
g1278
tp2550
sg732
(g730
g733
tp2551
sg1241
(g1239
g1242
tp2552
sg1783
(g1781
g1784
tp2553
sg1656
(g1654
g1657
tp2554
sg487
(g485
g488
tp2555
sg940
(g938
g941
tp2556
sg586
(g584
g587
tp2557
sg1115
(g1113
g1116
tp2558
sg1133
(g1131
g1134
tp2559
sg1078
(g1076
g1079
tp2560
sg1675
(g1673
g1676
tp2561
sg1350
(g1348
g1351
tp2562
sg677
(g675
g678
tp2563
sg904
(g902
g905
tp2564
sg1032
(g1030
g1033
tp2565
sg1485
(g1483
g1486
tp2566
sg448
(g446
g449
tp2567
sg949
(g947
g950
tp2568
sg1765
(g1763
g1766
tp2569
sg550
(g548
g551
tp2570
sg329
(g327
g330
tp2571
sg2116
(g2114
g2117
tp2572
sg1512
(g1510
g1513
tp2573
sg211
(g209
g212
tp2574
sg2035
(g2033
g2036
tp2575
sg275
(g273
g276
tp2576
sg1981
(g1979
g1982
tp2577
sg2107
(g2105
g2108
tp2578
sg1711
(g1709
g1712
tp2579
sg1196
(g1194
g1197
tp2580
sg777
(g775
g778
tp2581
sg1945
(g1943
g1946
tp2582
sg1729
(g1727
g1730
tp2583
sg958
(g956
g959
tp2584
sg1620
(g1618
g1621
tp2585
sg230
(g228
g231
tp2586
sg402
(g400
g403
tp2587
sg1990
(g1988
g1991
tp2588
sg759
(g757
g760
tp2589
sg1720
(g1718
g1721
tp2590
sg840
(g838
g841
tp2591
sg1304
(g1302
g1305
tp2592
sg623
(g621
g624
tp2593
sg1828
(g1826
g1829
tp2594
sg1386
(g1384
g1387
tp2595
sg922
(g920
g923
tp2596
sg986
(g984
g987
tp2597
sg1440
(g1438
g1441
tp2598
sg2008
(g2006
g2009
tp2599
sg293
(g291
g294
tp2600
sg348
(g346
g349
tp2601
sg1332
(g1330
g1333
tp2602
sg867
(g865
g868
tp2603
sg1268
(g1266
g1269
tp2604
sg30
(g28
g31
tp2605
sg58
(g56
g59
tp2606
sg2089
(g2087
g2090
tp2607
sg1368
(g1366
g1369
tp2608
sg2080
(g2078
g2081
tp2609
sg1882
(g1880
g1883
tp2610
sg1449
(g1447
g1450
tp2611
ssS'fieldnames'
p2612
S'None'
p2613
sS'aliases'
p2614
(dp2615
(g1075
g1079
tp2616
(g1076
g1079
tp2617
s(g464
g468
tp2618
(g465
g468
tp2619
s(g227
g231
tp2620
(g228
g231
tp2621
s(g593
g597
tp2622
(g594
g597
tp2623
s(g55
g59
tp2624
(g56
g59
tp2625
s(g1537
g1541
tp2626
(g1538
g1541
tp2627
s(g1085
g1089
tp2628
(g1086
g1089
tp2629
s(g445
g449
tp2630
(g446
g449
tp2631
s(g475
g479
tp2632
(g476
g479
tp2633
s(g1002
g1006
tp2634
(g1003
g1006
tp2635
s(g974
g978
tp2636
(g975
g978
tp2637
s(g345
g349
tp2638
(g346
g349
tp2639
s(g474
g479
tp2640
(g476
g479
tp2641
s(g901
g905
tp2642
(g902
g905
tp2643
s(g1672
g1676
tp2644
(g1673
g1676
tp2645
s(g1311
g1315
tp2646
(g1312
g1315
tp2647
s(g711
g715
tp2648
(g712
g715
tp2649
ss.