(dp1
S'roster'
p2
(dp3
S'Thornburg'
p4
(dp5
S'Sarah'
p6
(dp7
S'Last Name Alias'
p8
(lp9
sS'Last Name'
p10
g4
sS'Section'
p11
S'PHYS-6C-01-LEC-Intro Phys III-62368 and PHYS-6C-01B-DIS-Intro Phys III-62370'
p12
sS'SIS Login ID'
p13
S'sthornbu@ucsc.edu'
p14
sS'ID'
p15
S'14682'
p16
sS'First Name'
p17
g6
sS'Student'
p18
S'Sarah Thornburg'
p19
sS'SIS User ID'
p20
S'1476698'
p21
sS'Full Name'
p22
g19
sS'First Name Alias'
p23
(lp24
sssS'Hendrix'
p25
(dp26
S'Hailey'
p27
(dp28
g8
(lp29
sg10
g25
sg11
S'PHYS-6C-01-LEC-Intro Phys III-62368'
p30
sg13
S'hahendri@ucsc.edu'
p31
sg15
S'12024'
p32
sg17
g27
sg18
S'Hailey Hendrix'
p33
sg20
S'1476679'
p34
sg22
g33
sg23
(lp35
sssS'Vasquez'
p36
(dp37
S'Yvonne'
p38
(dp39
g8
(lp40
sg10
g36
sg11
S'PHYS-6C-01-LEC-Intro Phys III-62368'
p41
sg13
S'yavasque@ucsc.edu'
p42
sg15
S'20023'
p43
sg17
g38
sg18
S'Yvonne Vasquez'
p44
sg20
S'1478808'
p45
sg22
g44
sg23
(lp46
sssS'Fang'
p47
(dp48
S'Melissa'
p49
(dp50
g8
(lp51
sg10
g47
sg11
S'PHYS-6C-01-LEC-Intro Phys III-62368 and PHYS-6C-01B-DIS-Intro Phys III-62370'
p52
sg13
S'mrfang@ucsc.edu'
p53
sg15
S'12053'
p54
sg17
g49
sg18
S'Melissa Fang'
p55
sg20
S'1480300'
p56
sg22
g55
sg23
(lp57
sssS'Gonzales'
p58
(dp59
S'Hailey'
p60
(dp61
g8
(lp62
sg10
g58
sg11
S'PHYS-6C-01-LEC-Intro Phys III-62368'
p63
sg13
S'hargonza@ucsc.edu'
p64
sg15
S'3146'
p65
sg17
g60
sg18
S'Hailey Gonzales'
p66
sg20
S'1417437'
p67
sg22
g66
sg23
(lp68
sssS'Drusinsky'
p69
(dp70
S'Shiron'
p71
(dp72
g8
(lp73
sg10
g69
sg11
S'PHYS-6C-01-LEC-Intro Phys III-62368'
p74
sg13
S'sdrusins@ucsc.edu'
p75
sg15
S'3244'
p76
sg17
g71
sg18
S'Shiron Drusinsky'
p77
sg20
S'1419719'
p78
sg22
g77
sg23
(lp79
sssS'Smith'
p80
(dp81
S'Amber'
p82
(dp83
g8
(lp84
sg10
g80
sg11
S'PHYS-6C-01-LEC-Intro Phys III-62368'
p85
sg13
S'amkismit@ucsc.edu'
p86
sg15
S'17012'
p87
sg17
g82
sg18
S'Amber Smith'
p88
sg20
S'1441084'
p89
sg22
g88
sg23
(lp90
sssS'Sheth'
p91
(dp92
S'Ruchi'
p93
(dp94
g8
(lp95
sg10
g91
sg11
S'PHYS-6C-01-LEC-Intro Phys III-62368'
p96
sg13
S'rjsheth@ucsc.edu'
p97
sg15
S'19851'
p98
sg17
g93
sg18
S'Ruchi Sheth'
p99
sg20
S'1463984'
p100
sg22
g99
sg23
(lp101
sssS'Hinojosa'
p102
(dp103
S'Gabriela'
p104
(dp105
g8
(lp106
sg10
g102
sg11
S'PHYS-6C-01-LEC-Intro Phys III-62368'
p107
sg13
S'ghinojos@ucsc.edu'
p108
sg15
S'2091'
p109
sg17
g104
sg18
S'Gabriela Hinojosa'
p110
sg20
S'1371321'
p111
sg22
g110
sg23
(lp112
sssS'Capili'
p113
(dp114
S'Allyson'
p115
(dp116
g8
(lp117
sg10
g113
sg11
S'PHYS-6C-01-LEC-Intro Phys III-62368 and PHYS-6C-01B-DIS-Intro Phys III-62370'
p118
sg13
S'amcapili@ucsc.edu'
p119
sg15
S'17406'
p120
sg17
g115
sg18
S'Allyson Capili'
p121
sg20
S'1488578'
p122
sg22
g121
sg23
(lp123
sssS'Alvarado'
p124
(dp125
S'Diana'
p126
(dp127
g8
(lp128
sg10
g124
sg11
S'PHYS-6C-01-LEC-Intro Phys III-62368 and PHYS-6C-01A-DIS-Intro Phys III-62369'
p129
sg13
S'dicalvar@ucsc.edu'
p130
sg15
S'4237'
p131
sg17
g126
sg18
S'Diana Alvarado'
p132
sg20
S'1461071'
p133
sg22
g132
sg23
(lp134
sssS'Koshy'
p135
(dp136
S'Auguste'
p137
(dp138
g8
(lp139
sg10
g135
sg11
S'PHYS-6C-01-LEC-Intro Phys III-62368 and PHYS-6C-01A-DIS-Intro Phys III-62369'
p140
sg13
S'aupkoshy@ucsc.edu'
p141
sg15
S'5024'
p142
sg17
g137
sg18
S'Auguste Koshy'
p143
sg20
S'1487640'
p144
sg22
g143
sg23
(lp145
sssS'Zia'
p146
(dp147
S'Mona'
p148
(dp149
g8
(lp150
sg10
g146
sg11
S'PHYS-6C-01-LEC-Intro Phys III-62368'
p151
sg13
S'mzia@ucsc.edu'
p152
sg15
S'17195'
p153
sg17
g148
sg18
S'Mona Zia'
p154
sg20
S'1465158'
p155
sg22
g154
sg23
(lp156
sssS'White'
p157
(dp158
S'Kristin'
p159
(dp160
g8
(lp161
sg10
g157
sg11
S'PHYS-6C-01-LEC-Intro Phys III-62368'
p162
sg13
S'kwhtie@ucsc.edu'
p163
sg15
S'18301'
p164
sg17
g159
sg18
S'Kristin White'
p165
sg20
S'1398354'
p166
sg22
g165
sg23
(lp167
sssS'Powell'
p168
(dp169
S'Christopher'
p170
(dp171
g8
(lp172
sg10
g168
sg11
S'PHYS-6C-01-LEC-Intro Phys III-62368'
p173
sg13
S'chjpowel@ucsc.edu'
p174
sg15
S'9150'
p175
sg17
g170
sg18
S'Christopher Powell'
p176
sg20
S'1452686'
p177
sg22
g176
sg23
(lp178
ssS'Gabrielle'
p179
(dp180
g8
(lp181
sg10
S'Powell'
p182
sg11
S'PHYS-6C-01-LEC-Intro Phys III-62368 and PHYS-6C-01A-DIS-Intro Phys III-62369'
p183
sg13
S'gapowell@ucsc.edu'
p184
sg15
S'4255'
p185
sg17
g179
sg18
S'Gabrielle Powell'
p186
sg20
S'1463182'
p187
sg22
g186
sg23
(lp188
sssS'Castaneda'
p189
(dp190
S'Noe'
p191
(dp192
g8
(lp193
sg10
g189
sg11
S'PHYS-6C-01-LEC-Intro Phys III-62368 and PHYS-6C-01A-DIS-Intro Phys III-62369'
p194
sg13
S'nocastan@ucsc.edu'
p195
sg15
S'5153'
p196
sg17
g191
sg18
S'Noe Castaneda'
p197
sg20
S'1493432'
p198
sg22
g197
sg23
(lp199
sssS'Brown'
p200
(dp201
S'Emani'
p202
(dp203
g8
(lp204
sg10
g200
sg11
S'PHYS-6C-01-LEC-Intro Phys III-62368 and PHYS-6C-01A-DIS-Intro Phys III-62369'
p205
sg13
S'emmabrow@ucsc.edu'
p206
sg15
S'12032'
p207
sg17
g202
sg18
S'Emani Brown'
p208
sg20
S'1478092'
p209
sg22
g208
sg23
(lp210
sssS'Zhou'
p211
(dp212
S'Simon'
p213
(dp214
g8
(lp215
sg10
g211
sg11
S'PHYS-6C-01-LEC-Intro Phys III-62368 and PHYS-6C-01A-DIS-Intro Phys III-62369'
p216
sg13
S'skzhou@ucsc.edu'
p217
sg15
S'4410'
p218
sg17
g213
sg18
S'Simon Zhou'
p219
sg20
S'1467166'
p220
sg22
g219
sg23
(lp221
sssS'Richter'
p222
(dp223
S'Carley'
p224
(dp225
g8
(lp226
sg10
g222
sg11
S'PHYS-6C-01-LEC-Intro Phys III-62368 and PHYS-6C-01B-DIS-Intro Phys III-62370'
p227
sg13
S'cjrichte@ucsc.edu'
p228
sg15
S'11986'
p229
sg17
g224
sg18
S'Carley Richter'
p230
sg20
S'1472265'
p231
sg22
g230
sg23
(lp232
sssS'Suleiman'
p233
(dp234
S'Naser'
p235
(dp236
g8
(lp237
sg10
g233
sg11
S'PHYS-6C-01-LEC-Intro Phys III-62368'
p238
sg13
S'nnsuleim@ucsc.edu'
p239
sg15
S'4142'
p240
sg17
g235
sg18
S'Naser Suleiman'
p241
sg20
S'1457804'
p242
sg22
g241
sg23
(lp243
sssS'Medor'
p244
(dp245
S'Sara'
p246
(dp247
g8
(lp248
sg10
g244
sg11
S'PHYS-6C-01-LEC-Intro Phys III-62368'
p249
sg13
S'smedor@ucsc.edu'
p250
sg15
S'8367'
p251
sg17
g246
sg18
S'Sara Medor'
p252
sg20
S'1349545'
p253
sg22
g252
sg23
(lp254
sssS'Alanzalon'
p255
(dp256
S'Joselyn'
p257
(dp258
g8
(lp259
sg10
g255
sg11
S'PHYS-6C-01-LEC-Intro Phys III-62368'
p260
sg13
S'jgalanza@ucsc.edu'
p261
sg15
S'12152'
p262
sg17
g257
sg18
S'Joselyn Alanzalon'
p263
sg20
S'1490625'
p264
sg22
g263
sg23
(lp265
sssS'Ober'
p266
(dp267
S'Duncan'
p268
(dp269
g8
(lp270
sg10
g266
sg11
S'PHYS-6C-01-LEC-Intro Phys III-62368'
p271
sg13
S'dober@ucsc.edu'
p272
sg15
S'9993'
p273
sg17
g268
sg18
S'Duncan Ober'
p274
sg20
S'1534729'
p275
sg22
g274
sg23
(lp276
sssS'Mok'
p277
(dp278
S'Megan'
p279
(dp280
g8
(lp281
sg10
g277
sg11
S'PHYS-6C-01-LEC-Intro Phys III-62368'
p282
sg13
S'mmok@ucsc.edu'
p283
sg15
S'9470'
p284
sg17
g279
sg18
S'Megan Mok'
p285
sg20
S'1486202'
p286
sg22
g285
sg23
(lp287
sssS'Flores'
p288
(dp289
S'Joel'
p290
(dp291
g8
(lp292
sg10
S'Flores'
p293
sg11
S'PHYS-6C-01-LEC-Intro Phys III-62368'
p294
sg13
S'jflore46@ucsc.edu'
p295
sg15
S'5269'
p296
sg17
g290
sg18
S'Joel Flores'
p297
sg20
S'1497247'
p298
sg22
g297
sg23
(lp299
ssS'Fernando'
p300
(dp301
g8
(lp302
sg10
g288
sg11
S'PHYS-6C-01-LEC-Intro Phys III-62368 and PHYS-6C-01B-DIS-Intro Phys III-62370'
p303
sg13
S'feflores@ucsc.edu'
p304
sg15
S'16906'
p305
sg17
g300
sg18
S'Fernando Flores'
p306
sg20
S'1425936'
p307
sg22
g306
sg23
(lp308
sssS'Dickerson'
p309
(dp310
S'Michael'
p311
(dp312
g8
(lp313
sg10
g309
sg11
S'PHYS-6C-01-LEC-Intro Phys III-62368 and PHYS-6C-01B-DIS-Intro Phys III-62370'
p314
sg13
S'mmdicker@ucsc.edu'
p315
sg15
S'30346'
p316
sg17
g311
sg18
S'Michael Dickerson'
p317
sg20
S'1289716'
p318
sg22
g317
sg23
(lp319
sssS'Ngo'
p320
(dp321
S'Jessica'
p322
(dp323
g8
(lp324
sg10
g320
sg11
S'PHYS-6C-01-LEC-Intro Phys III-62368 and PHYS-6C-01A-DIS-Intro Phys III-62369'
p325
sg13
S'jepngo@ucsc.edu'
p326
sg15
S'4539'
p327
sg17
g322
sg18
S'Jessica Ngo'
p328
sg20
S'1471215'
p329
sg22
g328
sg23
(lp330
sssS'Normand'
p331
(dp332
S'Elizabeth'
p333
(dp334
g8
(lp335
sg10
g331
sg11
S'PHYS-6C-01-LEC-Intro Phys III-62368'
p336
sg13
S'enormand@ucsc.edu'
p337
sg15
S'7780'
p338
sg17
g333
sg18
S'Elizabeth Normand'
p339
sg20
S'1570365'
p340
sg22
g339
sg23
(lp341
sssS'Drake'
p342
(dp343
S'Remi'
p344
(dp345
g8
(lp346
sg10
g342
sg11
S'PHYS-6C-01-LEC-Intro Phys III-62368'
p347
sg13
S'rdrake@ucsc.edu'
p348
sg15
S'16773'
p349
sg17
g344
sg18
S'Remi Drake'
p350
sg20
S'1413000'
p351
sg22
g350
sg23
(lp352
sssS'Karbum'
p353
(dp354
S'Cameron'
p355
(dp356
g8
(lp357
sg10
g353
sg11
S'PHYS-6C-01-LEC-Intro Phys III-62368 and PHYS-6C-01B-DIS-Intro Phys III-62370'
p358
sg13
S'ckarbum@ucsc.edu'
p359
sg15
S'11908'
p360
sg17
g355
sg18
S'Cameron Karbum'
p361
sg20
S'1465746'
p362
sg22
g361
sg23
(lp363
sssS'Alamo'
p364
(dp365
S'Alejandra'
p366
(dp367
g8
(lp368
S'Garcia Alamo'
p369
asg10
g364
sg11
S'PHYS-6C-01-LEC-Intro Phys III-62368 and PHYS-6C-01A-DIS-Intro Phys III-62369'
p370
sg13
S'agarc105@ucsc.edu'
p371
sg15
S'4465'
p372
sg17
g366
sg18
S'Alejandra Garcia Alamo'
p373
sg20
S'1468454'
p374
sg22
g373
sg23
(lp375
sssS'Shedd'
p376
(dp377
S'Madeleine'
p378
(dp379
g8
(lp380
sg10
g376
sg11
S'PHYS-6C-01-LEC-Intro Phys III-62368'
p381
sg13
S'mshedd@ucsc.edu'
p382
sg15
S'4404'
p383
sg17
g378
sg18
S'Madeleine Shedd'
p384
sg20
S'1466446'
p385
sg22
g384
sg23
(lp386
sssS'Iniguez'
p387
(dp388
S'Crystal'
p389
(dp390
g8
(lp391
S'Ramos Iniguez'
p392
asg10
g387
sg11
S'PHYS-6C-01-LEC-Intro Phys III-62368 and PHYS-6C-01A-DIS-Intro Phys III-62369'
p393
sg13
S'cramosin@ucsc.edu'
p394
sg15
S'2716'
p395
sg17
g389
sg18
S'Crystal Ramos Iniguez'
p396
sg20
S'1402365'
p397
sg22
g396
sg23
(lp398
sssS'Du'
p399
(dp400
S'Kelvin'
p401
(dp402
g8
(lp403
sg10
g399
sg11
S'PHYS-6C-01-LEC-Intro Phys III-62368 and PHYS-6C-01A-DIS-Intro Phys III-62369'
p404
sg13
S'khdu@ucsc.edu'
p405
sg15
S'17339'
p406
sg17
g401
sg18
S'Kelvin Du'
p407
sg20
S'1481573'
p408
sg22
g407
sg23
(lp409
sssS'Cariaga'
p410
(dp411
S'Bret'
p412
(dp413
g8
(lp414
sg10
g410
sg11
S'PHYS-6C-01-LEC-Intro Phys III-62368 and PHYS-6C-01A-DIS-Intro Phys III-62369'
p415
sg13
S'bcariaga@ucsc.edu'
p416
sg15
S'17911'
p417
sg17
g412
sg18
S'Bret Cariaga'
p418
sg20
S'1533579'
p419
sg22
g418
sg23
(lp420
sssS'Bravo'
p421
(dp422
S'Jazmin'
p423
(dp424
g8
(lp425
sg10
g421
sg11
S'PHYS-6C-01-LEC-Intro Phys III-62368'
p426
sg13
S'jdbravo@ucsc.edu'
p427
sg15
S'4656'
p428
sg17
g423
sg18
S'Jazmin Bravo'
p429
sg20
S'1475111'
p430
sg22
g429
sg23
(lp431
sssS'Felix'
p432
(dp433
S'Jessica'
p434
(dp435
g8
(lp436
sg10
g432
sg11
S'PHYS-6C-01-LEC-Intro Phys III-62368 and PHYS-6C-01A-DIS-Intro Phys III-62369'
p437
sg13
S'jeefelix@ucsc.edu'
p438
sg15
S'5090'
p439
sg17
g434
sg18
S'Jessica Felix'
p440
sg20
S'1490864'
p441
sg22
g440
sg23
(lp442
sssS'Benigno'
p443
(dp444
S'Justin'
p445
(dp446
g8
(lp447
sg10
g443
sg11
S'PHYS-6C-01-LEC-Intro Phys III-62368 and PHYS-6C-01B-DIS-Intro Phys III-62370'
p448
sg13
S'jbenigno@ucsc.edu'
p449
sg15
S'18191'
p450
sg17
g445
sg18
S'Justin Benigno'
p451
sg20
S'1563255'
p452
sg22
g451
sg23
(lp453
sssS'Banh'
p454
(dp455
S'Vivian'
p456
(dp457
g8
(lp458
sg10
g454
sg11
S'PHYS-6C-01-LEC-Intro Phys III-62368 and PHYS-6C-01A-DIS-Intro Phys III-62369'
p459
sg13
S'vvbanh@ucsc.edu'
p460
sg15
S'12616'
p461
sg17
g456
sg18
S'Vivian Banh'
p462
sg20
S'1533518'
p463
sg22
g462
sg23
(lp464
sssS'Sabbah'
p465
(dp466
S'Micah'
p467
(dp468
g8
(lp469
sg10
g465
sg11
S'PHYS-6C-01-LEC-Intro Phys III-62368'
p470
sg13
S'mhsabbah@ucsc.edu'
p471
sg15
S'7345'
p472
sg17
g467
sg18
S'Micah Sabbah'
p473
sg20
S'1559929'
p474
sg22
g473
sg23
(lp475
sssS'Thao'
p476
(dp477
S'Phaorenzia'
p478
(dp479
g8
(lp480
sg10
g476
sg11
S'PHYS-6C-01-LEC-Intro Phys III-62368 and PHYS-6C-01B-DIS-Intro Phys III-62370'
p481
sg13
S'pmthao@ucsc.edu'
p482
sg15
S'3318'
p483
sg17
g478
sg18
S'Phaorenzia Thao'
p484
sg20
S'1422306'
p485
sg22
g484
sg23
(lp486
sssS'Freedman'
p487
(dp488
S'Alicia'
p489
(dp490
g8
(lp491
sg10
g487
sg11
S'PHYS-6C-01-LEC-Intro Phys III-62368 and PHYS-6C-01A-DIS-Intro Phys III-62369'
p492
sg13
S'acfreedm@ucsc.edu'
p493
sg15
S'5173'
p494
sg17
g489
sg18
S'Alicia Freedman'
p495
sg20
S'1494611'
p496
sg22
g495
sg23
(lp497
sssS'Manoel'
p498
(dp499
S'Shunt'
p500
(dp501
g8
(lp502
sg10
g498
sg11
S'PHYS-6C-01-LEC-Intro Phys III-62368 and PHYS-6C-01A-DIS-Intro Phys III-62369'
p503
sg13
S'smanoel@ucsc.edu'
p504
sg15
S'18184'
p505
sg17
g500
sg18
S'Shunt Manoel'
p506
sg20
S'1499455'
p507
sg22
g506
sg23
(lp508
sssS'Jimenez'
p509
(dp510
S'Rommel'
p511
(dp512
g8
(lp513
S'Junior Jimenez'
p514
asg10
S'Jimenez'
p515
sg11
S'PHYS-6C-01-LEC-Intro Phys III-62368 and PHYS-6C-01A-DIS-Intro Phys III-62369'
p516
sg13
S'rorjimen@ucsc.edu'
p517
sg15
S'3087'
p518
sg17
g511
sg18
S'Rommel Junior Jimenez'
p519
sg20
S'1415235'
p520
sg22
g519
sg23
(lp521
ssS'Natalie'
p522
(dp523
g8
(lp524
sg10
g509
sg11
S'PHYS-6C-01-LEC-Intro Phys III-62368'
p525
sg13
S'nadjimen@ucsc.edu'
p526
sg15
S'3205'
p527
sg17
g522
sg18
S'Natalie Jimenez'
p528
sg20
S'1418485'
p529
sg22
g528
sg23
(lp530
sssS'Perez'
p531
(dp532
S'Sergio'
p533
(dp534
g8
(lp535
sg10
g531
sg11
S'PHYS-6C-01-LEC-Intro Phys III-62368 and PHYS-6C-01A-DIS-Intro Phys III-62369'
p536
sg13
S'searpere@ucsc.edu'
p537
sg15
S'9042'
p538
sg17
g533
sg18
S'Sergio Perez'
p539
sg20
S'1435152'
p540
sg22
g539
sg23
(lp541
sssS'Abel'
p542
(dp543
S'Calvin'
p544
(dp545
g8
(lp546
sg10
g542
sg11
S'PHYS-6C-01-LEC-Intro Phys III-62368'
p547
sg13
S'ceabel@ucsc.edu'
p548
sg15
S'2584'
p549
sg17
g544
sg18
S'Calvin Abel'
p550
sg20
S'1398942'
p551
sg22
g550
sg23
(lp552
sssS'Frederiksen'
p553
(dp554
S'Emily'
p555
(dp556
g8
(lp557
sg10
g553
sg11
S'PHYS-6C-01-LEC-Intro Phys III-62368 and PHYS-6C-01A-DIS-Intro Phys III-62369'
p558
sg13
S'elfreder@ucsc.edu'
p559
sg15
S'23594'
p560
sg17
g555
sg18
S'Emily Frederiksen'
p561
sg20
S'1594179'
p562
sg22
g561
sg23
(lp563
sssS'Cederlind'
p564
(dp565
S'Tara'
p566
(dp567
g8
(lp568
sg10
g564
sg11
S'PHYS-6C-01-LEC-Intro Phys III-62368 and PHYS-6C-01A-DIS-Intro Phys III-62369'
p569
sg13
S'tcederli@ucsc.edu'
p570
sg15
S'8695'
p571
sg17
g566
sg18
S'Tara Cederlind'
p572
sg20
S'1397587'
p573
sg22
g572
sg23
(lp574
sssS'Hurwit'
p575
(dp576
S'Wendy'
p577
(dp578
g8
(lp579
sg10
g575
sg11
S'PHYS-6C-01-LEC-Intro Phys III-62368 and PHYS-6C-01A-DIS-Intro Phys III-62369'
p580
sg13
S'whurwit@ucsc.edu'
p581
sg15
S'14221'
p582
sg17
g577
sg18
S'Wendy Hurwit'
p583
sg20
S'1421381'
p584
sg22
g583
sg23
(lp585
sssS'Bornstein'
p586
(dp587
S'Jacob'
p588
(dp589
g8
(lp590
sg10
g586
sg11
S'PHYS-6C-01-LEC-Intro Phys III-62368 and PHYS-6C-01A-DIS-Intro Phys III-62369'
p591
sg13
S'jsbornst@ucsc.edu'
p592
sg15
S'6504'
p593
sg17
g588
sg18
S'Jacob Bornstein'
p594
sg20
S'1533236'
p595
sg22
g594
sg23
(lp596
sssS'Barta'
p597
(dp598
S'Ribhi'
p599
(dp600
g8
(lp601
sg10
g597
sg11
S'PHYS-6C-01-LEC-Intro Phys III-62368'
p602
sg13
S'rbarta@ucsc.edu'
p603
sg15
S'28803'
p604
sg17
g599
sg18
S'Ribhi Barta'
p605
sg20
S'1597475'
p606
sg22
g605
sg23
(lp607
sssS'Fregoso'
p608
(dp609
S'Sydney'
p610
(dp611
g8
(lp612
sg10
g608
sg11
S'PHYS-6C-01-LEC-Intro Phys III-62368 and PHYS-6C-01B-DIS-Intro Phys III-62370'
p613
sg13
S'srfregos@ucsc.edu'
p614
sg15
S'5825'
p615
sg17
g610
sg18
S'Sydney Fregoso'
p616
sg20
S'1513467'
p617
sg22
g616
sg23
(lp618
sssS'Mata'
p619
(dp620
S'Jorge'
p621
(dp622
g8
(lp623
sg10
g619
sg11
S'PHYS-6C-01-LEC-Intro Phys III-62368 and PHYS-6C-01A-DIS-Intro Phys III-62369'
p624
sg13
S'joalmata@ucsc.edu'
p625
sg15
S'12109'
p626
sg17
g621
sg18
S'Jorge Mata'
p627
sg20
S'1485946'
p628
sg22
g627
sg23
(lp629
sssS'Azevedo'
p630
(dp631
S'Oliver'
p632
(dp633
g8
(lp634
sg10
g630
sg11
S'PHYS-6C-01-LEC-Intro Phys III-62368 and PHYS-6C-01B-DIS-Intro Phys III-62370'
p635
sg13
S'oaazeved@ucsc.edu'
p636
sg15
S'19224'
p637
sg17
g632
sg18
S'Oliver Azevedo'
p638
sg20
S'1398811'
p639
sg22
g638
sg23
(lp640
sssS'Melms'
p641
(dp642
S'Tyler'
p643
(dp644
g8
(lp645
sg10
g641
sg11
S'PHYS-6C-01-LEC-Intro Phys III-62368 and PHYS-6C-01A-DIS-Intro Phys III-62369'
p646
sg13
S'tmelms@ucsc.edu'
p647
sg15
S'26362'
p648
sg17
g643
sg18
S'Tyler Melms'
p649
sg20
S'1580868'
p650
sg22
g649
sg23
(lp651
sssS'Huynh'
p652
(dp653
S'Amber'
p654
(dp655
g8
(lp656
sg10
g652
sg11
S'PHYS-6C-01-LEC-Intro Phys III-62368'
p657
sg13
S'ahuynh12@ucsc.edu'
p658
sg15
S'4220'
p659
sg17
g654
sg18
S'Amber Huynh'
p660
sg20
S'1460431'
p661
sg22
g660
sg23
(lp662
ssS'Nathan'
p663
(dp664
g8
(lp665
sg10
S'Huynh'
p666
sg11
S'PHYS-6C-01-LEC-Intro Phys III-62368'
p667
sg13
S'nacohuyn@ucsc.edu'
p668
sg15
S'25720'
p669
sg17
g663
sg18
S'Nathan Huynh'
p670
sg20
S'1602400'
p671
sg22
g670
sg23
(lp672
sssS'Duong'
p673
(dp674
S'Cindy'
p675
(dp676
g8
(lp677
sg10
g673
sg11
S'PHYS-6C-01-LEC-Intro Phys III-62368'
p678
sg13
S'cduong6@ucsc.edu'
p679
sg15
S'9286'
p680
sg17
g675
sg18
S'Cindy Duong'
p681
sg20
S'1467515'
p682
sg22
g681
sg23
(lp683
sssS'Rice'
p684
(dp685
S'William'
p686
(dp687
g8
(lp688
sg10
g684
sg11
S'Introductory Physics III and PHYS-6C-01-LEC-Intro Phys III-62368'
p689
sg13
S'wirice@ucsc.edu'
p690
sg15
S'30738'
p691
sg17
g686
sg18
S'William Rice'
p692
sg20
S''
sg22
g692
sg23
(lp693
sssS'Marx'
p694
(dp695
S'Klaus'
p696
(dp697
g8
(lp698
sg10
g694
sg11
S'PHYS-6C-01-LEC-Intro Phys III-62368'
p699
sg13
S'kamarx@ucsc.edu'
p700
sg15
S'6881'
p701
sg17
g696
sg18
S'Klaus Marx'
p702
sg20
S'1543662'
p703
sg22
g702
sg23
(lp704
sssS'Tardy'
p705
(dp706
S'Morgan'
p707
(dp708
g8
(lp709
sg10
g705
sg11
S'PHYS-6C-01-LEC-Intro Phys III-62368'
p710
sg13
S'mtardy@ucsc.edu'
p711
sg15
S'8914'
p712
sg17
g707
sg18
S'Morgan Tardy'
p713
sg20
S'1421166'
p714
sg22
g713
sg23
(lp715
sssS'Zada'
p716
(dp717
S'Andrawis'
p718
(dp719
g8
(lp720
sg10
g716
sg11
S'PHYS-6C-01-LEC-Intro Phys III-62368 and PHYS-6C-01A-DIS-Intro Phys III-62369'
p721
sg13
S'azada@ucsc.edu'
p722
sg15
S'11578'
p723
sg17
g718
sg18
S'Andrawis Zada'
p724
sg20
S'1426752'
p725
sg22
g724
sg23
(lp726
sssS'Gullickson'
p727
(dp728
S'Kailey'
p729
(dp730
g8
(lp731
sg10
g727
sg11
S'PHYS-6C-01-LEC-Intro Phys III-62368 and PHYS-6C-01A-DIS-Intro Phys III-62369'
p732
sg13
S'kgullick@ucsc.edu'
p733
sg15
S'14428'
p734
sg17
g729
sg18
S'Kailey Gullickson'
p735
sg20
S'1450557'
p736
sg22
g735
sg23
(lp737
sssS'Garfias-Barragan'
p738
(dp739
S'Evelynne'
p740
(dp741
g8
(lp742
sg10
g738
sg11
S'PHYS-6C-01-LEC-Intro Phys III-62368'
p743
sg13
S'egarfias@ucsc.edu'
p744
sg15
S'12877'
p745
sg17
g740
sg18
S'Evelynne Garfias-Barragan'
p746
sg20
S'1560005'
p747
sg22
g746
sg23
(lp748
sssS'Shepherd'
p749
(dp750
S'Chanelle'
p751
(dp752
g8
(lp753
sg10
g749
sg11
S'PHYS-6C-01-LEC-Intro Phys III-62368'
p754
sg13
S'cnshephe@ucsc.edu'
p755
sg15
S'19728'
p756
sg17
g751
sg18
S'Chanelle Shepherd'
p757
sg20
S'1450640'
p758
sg22
g757
sg23
(lp759
sssS'Champion'
p760
(dp761
S'Emma'
p762
(dp763
g8
(lp764
sg10
g760
sg11
S'PHYS-6C-01-LEC-Intro Phys III-62368 and PHYS-6C-01A-DIS-Intro Phys III-62369'
p765
sg13
S'echampio@ucsc.edu'
p766
sg15
S'12761'
p767
sg17
g762
sg18
S'Emma Champion'
p768
sg20
S'1548106'
p769
sg22
g768
sg23
(lp770
sssS'Ayala'
p771
(dp772
S'Justin'
p773
(dp774
g8
(lp775
sg10
g771
sg11
S'PHYS-6C-01-LEC-Intro Phys III-62368'
p776
sg13
S'jumayala@ucsc.edu'
p777
sg15
S'3602'
p778
sg17
g773
sg18
S'Justin Ayala'
p779
sg20
S'1433169'
p780
sg22
g779
sg23
(lp781
sssS'Reitman'
p782
(dp783
S'Spencer'
p784
(dp785
g8
(lp786
sg10
g782
sg11
S'PHYS-6C-01-LEC-Intro Phys III-62368'
p787
sg13
S'syreitma@ucsc.edu'
p788
sg15
S'12529'
p789
sg17
g784
sg18
S'Spencer Reitman'
p790
sg20
S'1530445'
p791
sg22
g790
sg23
(lp792
sssS'Modena'
p793
(dp794
S'Matthew'
p795
(dp796
g8
(lp797
sg10
g793
sg11
S'PHYS-6C-01-LEC-Intro Phys III-62368'
p798
sg13
S'mmodena@ucsc.edu'
p799
sg15
S'18195'
p800
sg17
g795
sg18
S'Matthew Modena'
p801
sg20
S'1500666'
p802
sg22
g801
sg23
(lp803
sssS'Tressel'
p804
(dp805
S'John'
p806
(dp807
g8
(lp808
sg10
g804
sg11
S'PHYS-6C-01-LEC-Intro Phys III-62368'
p809
sg13
S'jtressel@ucsc.edu'
p810
sg15
S'10066'
p811
sg17
g806
sg18
S'John Tressel'
p812
sg20
S'1540625'
p813
sg22
g812
sg23
(lp814
sssS'Sandoval'
p815
(dp816
S'Esmeralda'
p817
(dp818
g8
(lp819
sg10
g815
sg11
S'PHYS-6C-01-LEC-Intro Phys III-62368'
p820
sg13
S'esesando@ucsc.edu'
p821
sg15
S'14589'
p822
sg17
g817
sg18
S'Esmeralda Sandoval'
p823
sg20
S'1468718'
p824
sg22
g823
sg23
(lp825
sssS'Mclennan'
p826
(dp827
S'Zachary'
p828
(dp829
g8
(lp830
sg10
g826
sg11
S'PHYS-6C-01-LEC-Intro Phys III-62368 and PHYS-6C-01A-DIS-Intro Phys III-62369'
p831
sg13
S'zmclenna@ucsc.edu'
p832
sg15
S'14668'
p833
sg17
g828
sg18
S'Zachary Mclennan'
p834
sg20
S'1475080'
p835
sg22
g834
sg23
(lp836
sssS'Carmichael'
p837
(dp838
S'Daniel'
p839
(dp840
g8
(lp841
sg10
g837
sg11
S'PHYS-6C-01-LEC-Intro Phys III-62368 and PHYS-6C-01B-DIS-Intro Phys III-62370'
p842
sg13
S'dcarmich@ucsc.edu'
p843
sg15
S'4802'
p844
sg17
g839
sg18
S'Daniel Carmichael'
p845
sg20
S'1480077'
p846
sg22
g845
sg23
(lp847
sssS'Huang'
p848
(dp849
S'Andrew'
p850
(dp851
g8
(lp852
sg10
g848
sg11
S'PHYS-6C-01-LEC-Intro Phys III-62368'
p853
sg13
S'andhuang@ucsc.edu'
p854
sg15
S'7284'
p855
sg17
g850
sg18
S'Andrew Huang'
p856
sg20
S'1558345'
p857
sg22
g856
sg23
(lp858
sssS'Dhillon'
p859
(dp860
S'Gagandeep'
p861
(dp862
g8
(lp863
sg10
g859
sg11
S'PHYS-6C-01-LEC-Intro Phys III-62368 and PHYS-6C-01A-DIS-Intro Phys III-62369'
p864
sg13
S'gasdhill@ucsc.edu'
p865
sg15
S'14744'
p866
sg17
g861
sg18
S'Gagandeep Dhillon'
p867
sg20
S'1484518'
p868
sg22
g867
sg23
(lp869
sssS'Cook'
p870
(dp871
S'James'
p872
(dp873
g8
(lp874
sg10
g870
sg11
S'PHYS-6C-01-LEC-Intro Phys III-62368 and PHYS-6C-01A-DIS-Intro Phys III-62369'
p875
sg13
S'jgcook@ucsc.edu'
p876
sg15
S'9365'
p877
sg17
g872
sg18
S'James Cook'
p878
sg20
S'1475643'
p879
sg22
g878
sg23
(lp880
ssS'Ryan'
p881
(dp882
g8
(lp883
sg10
S'Cook'
p884
sg11
S'PHYS-6C-01-LEC-Intro Phys III-62368 and PHYS-6C-01A-DIS-Intro Phys III-62369'
p885
sg13
S'ryjcook@ucsc.edu'
p886
sg15
S'19750'
p887
sg17
g881
sg18
S'Ryan Cook'
p888
sg20
S'1454165'
p889
sg22
g888
sg23
(lp890
sssS'Keith'
p891
(dp892
S'Sydney'
p893
(dp894
g8
(lp895
sg10
g891
sg11
S'PHYS-6C-01-LEC-Intro Phys III-62368'
p896
sg13
S'skeith@ucsc.edu'
p897
sg15
S'16448'
p898
sg17
g893
sg18
S'Sydney Keith'
p899
sg20
S'1370325'
p900
sg22
g899
sg23
(lp901
sssS'Ramareddi'
p902
(dp903
S'Vineet'
p904
(dp905
g8
(lp906
sg10
g902
sg11
S'PHYS-6C-01-LEC-Intro Phys III-62368'
p907
sg13
S'vramared@ucsc.edu'
p908
sg15
S'6539'
p909
sg17
g904
sg18
S'Vineet Ramareddi'
p910
sg20
S'1535346'
p911
sg22
g910
sg23
(lp912
sssS'Ma'
p913
(dp914
S'Carmen'
p915
(dp916
g8
(lp917
sg10
g913
sg11
S'PHYS-6C-01-LEC-Intro Phys III-62368 and PHYS-6C-01A-DIS-Intro Phys III-62369'
p918
sg13
S'cma6568@ucsc.edu'
p919
sg15
S'2831'
p920
sg17
g915
sg18
S'Carmen Ma'
p921
sg20
S'1406834'
p922
sg22
g921
sg23
(lp923
ssS'Yilin'
p924
(dp925
g8
(lp926
sg10
S'Ma'
p927
sg11
S'PHYS-6C-01-LEC-Intro Phys III-62368 and PHYS-6C-01A-DIS-Intro Phys III-62369'
p928
sg13
S'yma16@ucsc.edu'
p929
sg15
S'16702'
p930
sg17
g924
sg18
S'Yilin Ma'
p931
sg20
S'1405629'
p932
sg22
g931
sg23
(lp933
sssS'Bellippady'
p934
(dp935
S'Akash'
p936
(dp937
g8
(lp938
sg10
g934
sg11
S'PHYS-6C-01-LEC-Intro Phys III-62368 and PHYS-6C-01A-DIS-Intro Phys III-62369'
p939
sg13
S'abellipp@ucsc.edu'
p940
sg15
S'9314'
p941
sg17
g936
sg18
S'Akash Bellippady'
p942
sg20
S'1470650'
p943
sg22
g942
sg23
(lp944
sssS'Greer'
p945
(dp946
S'Rachael'
p947
(dp948
g8
(lp949
sg10
g945
sg11
S'PHYS-6C-01-LEC-Intro Phys III-62368 and PHYS-6C-01A-DIS-Intro Phys III-62369'
p950
sg13
S'rrgreer@ucsc.edu'
p951
sg15
S'16718'
p952
sg17
g947
sg18
S'Rachael Greer'
p953
sg20
S'1407362'
p954
sg22
g953
sg23
(lp955
sssS'Kuang'
p956
(dp957
S'Daisy'
p958
(dp959
g8
(lp960
sg10
g956
sg11
S'PHYS-6C-01-LEC-Intro Phys III-62368 and PHYS-6C-01A-DIS-Intro Phys III-62369'
p961
sg13
S'dkuang2@ucsc.edu'
p962
sg15
S'17910'
p963
sg17
g958
sg18
S'Daisy Kuang'
p964
sg20
S'1532135'
p965
sg22
g964
sg23
(lp966
sssS'Pimentel'
p967
(dp968
S'Melissa'
p969
(dp970
g8
(lp971
sg10
g967
sg11
S'PHYS-6C-01-LEC-Intro Phys III-62368 and PHYS-6C-01A-DIS-Intro Phys III-62369'
p972
sg13
S'mepiment@ucsc.edu'
p973
sg15
S'22537'
p974
sg17
g969
sg18
S'Melissa Pimentel'
p975
sg20
S'1424834'
p976
sg22
g975
sg23
(lp977
sssS'Mccollum'
p978
(dp979
S'Sean'
p980
(dp981
g8
(lp982
sg10
g978
sg11
S'PHYS-6C-01-LEC-Intro Phys III-62368 and PHYS-6C-01A-DIS-Intro Phys III-62369'
p983
sg13
S'smccollu@ucsc.edu'
p984
sg15
S'6674'
p985
sg17
g980
sg18
S'Sean Mccollum'
p986
sg20
S'1539194'
p987
sg22
g986
sg23
(lp988
sssS'Suriya'
p989
(dp990
S'Sharu'
p991
(dp992
g8
(lp993
sg10
g989
sg11
S'PHYS-6C-01-LEC-Intro Phys III-62368'
p994
sg13
S'ssuriya@ucsc.edu'
p995
sg15
S'28105'
p996
sg17
g991
sg18
S'Sharu Suriya'
p997
sg20
S'1613411'
p998
sg22
g997
sg23
(lp999
sssS'Clickard'
p1000
(dp1001
S'Julia'
p1002
(dp1003
g8
(lp1004
sg10
g1000
sg11
S'PHYS-6C-01-LEC-Intro Phys III-62368 and PHYS-6C-01A-DIS-Intro Phys III-62369'
p1005
sg13
S'jclickar@ucsc.edu'
p1006
sg15
S'5942'
p1007
sg17
g1002
sg18
S'Julia Clickard'
p1008
sg20
S'1517498'
p1009
sg22
g1008
sg23
(lp1010
sssS'Dang'
p1011
(dp1012
S'Peter'
p1013
(dp1014
g8
(lp1015
sg10
g1011
sg11
S'PHYS-6C-01-LEC-Intro Phys III-62368 and PHYS-6C-01A-DIS-Intro Phys III-62369'
p1016
sg13
S'pedang@ucsc.edu'
p1017
sg15
S'4517'
p1018
sg17
g1013
sg18
S'Peter Dang'
p1019
sg20
S'1470236'
p1020
sg22
g1019
sg23
(lp1021
sssS'Camacho'
p1022
(dp1023
S'Khalia'
p1024
(dp1025
g8
(lp1026
sg10
g1022
sg11
S'PHYS-6C-01-LEC-Intro Phys III-62368 and PHYS-6C-01B-DIS-Intro Phys III-62370'
p1027
sg13
S'khmcamac@ucsc.edu'
p1028
sg15
S'4317'
p1029
sg17
g1024
sg18
S'Khalia Camacho'
p1030
sg20
S'1463841'
p1031
sg22
g1030
sg23
(lp1032
sssS'Aquino'
p1033
(dp1034
S'Sandra'
p1035
(dp1036
g8
(lp1037
sg10
g1033
sg11
S'PHYS-6C-01-LEC-Intro Phys III-62368 and PHYS-6C-01A-DIS-Intro Phys III-62369'
p1038
sg13
S'slaquino@ucsc.edu'
p1039
sg15
S'12019'
p1040
sg17
g1035
sg18
S'Sandra Aquino'
p1041
sg20
S'1474569'
p1042
sg22
g1041
sg23
(lp1043
sssS'Yee'
p1044
(dp1045
S'Lauren'
p1046
(dp1047
g8
(lp1048
sg10
g1044
sg11
S'PHYS-6C-01-LEC-Intro Phys III-62368 and PHYS-6C-01A-DIS-Intro Phys III-62369'
p1049
sg13
S'leyee@ucsc.edu'
p1050
sg15
S'12167'
p1051
sg17
g1046
sg18
S'Lauren Yee'
p1052
sg20
S'1493694'
p1053
sg22
g1052
sg23
(lp1054
sssS'Gamboa'
p1055
(dp1056
S'Gino'
p1057
(dp1058
g8
(lp1059
sg10
g1055
sg11
S'PHYS-6C-01-LEC-Intro Phys III-62368'
p1060
sg13
S'gigamboa@ucsc.edu'
p1061
sg15
S'1545'
p1062
sg17
g1057
sg18
S'Gino Gamboa'
p1063
sg20
S'1347337'
p1064
sg22
g1063
sg23
(lp1065
sssS'Villacarte'
p1066
(dp1067
S'Vanessa'
p1068
(dp1069
g8
(lp1070
sg10
g1066
sg11
S'PHYS-6C-01-LEC-Intro Phys III-62368 and PHYS-6C-01A-DIS-Intro Phys III-62369'
p1071
sg13
S'vavillac@ucsc.edu'
p1072
sg15
S'4611'
p1073
sg17
g1068
sg18
S'Vanessa Villacarte'
p1074
sg20
S'1475873'
p1075
sg22
g1074
sg23
(lp1076
sssS'Thirtyacre'
p1077
(dp1078
S'Spencer'
p1079
(dp1080
g8
(lp1081
sg10
g1077
sg11
S'PHYS-6C-01-LEC-Intro Phys III-62368'
p1082
sg13
S'sthirtya@ucsc.edu'
p1083
sg15
S'16853'
p1084
sg17
g1079
sg18
S'Spencer Thirtyacre'
p1085
sg20
S'1421457'
p1086
sg22
g1085
sg23
(lp1087
sssS'Gomez'
p1088
(dp1089
S'Maria'
p1090
(dp1091
g8
(lp1092
S'Silva Gomez'
p1093
asg10
g1088
sg11
S'PHYS-6C-01-LEC-Intro Phys III-62368 and PHYS-6C-01A-DIS-Intro Phys III-62369'
p1094
sg13
S'msilvago@ucsc.edu'
p1095
sg15
S'4133'
p1096
sg17
g1090
sg18
S'Maria Silva Gomez'
p1097
sg20
S'1457640'
p1098
sg22
g1097
sg23
(lp1099
sssS'Mcginley'
p1100
(dp1101
S'Timothy'
p1102
(dp1103
g8
(lp1104
sg10
g1100
sg11
S'PHYS-6C-01-LEC-Intro Phys III-62368 and PHYS-6C-01A-DIS-Intro Phys III-62369'
p1105
sg13
S'tmcginle@ucsc.edu'
p1106
sg15
S'12754'
p1107
sg17
g1102
sg18
S'Timothy Mcginley'
p1108
sg20
S'1548048'
p1109
sg22
g1108
sg23
(lp1110
sssS'Grichuhin'
p1111
(dp1112
S'Emily'
p1113
(dp1114
g8
(lp1115
sg10
g1111
sg11
S'PHYS-6C-01-LEC-Intro Phys III-62368 and PHYS-6C-01A-DIS-Intro Phys III-62369'
p1116
sg13
S'egrichuh@ucsc.edu'
p1117
sg15
S'5080'
p1118
sg17
g1113
sg18
S'Emily Grichuhin'
p1119
sg20
S'1489922'
p1120
sg22
g1119
sg23
(lp1121
sssS'Paine'
p1122
(dp1123
S'Melissa'
p1124
(dp1125
g8
(lp1126
sg10
g1122
sg11
S'PHYS-6C-01-LEC-Intro Phys III-62368 and PHYS-6C-01A-DIS-Intro Phys III-62369'
p1127
sg13
S'mpaine@ucsc.edu'
p1128
sg15
S'4659'
p1129
sg17
g1124
sg18
S'Melissa Paine'
p1130
sg20
S'1475939'
p1131
sg22
g1130
sg23
(lp1132
sssS'Silva'
p1133
(dp1134
S'Connie'
p1135
(dp1136
g8
(lp1137
sg10
g1133
sg11
S'PHYS-6C-01-LEC-Intro Phys III-62368 and PHYS-6C-01A-DIS-Intro Phys III-62369'
p1138
sg13
S'cosilva@ucsc.edu'
p1139
sg15
S'2715'
p1140
sg17
g1135
sg18
S'Connie Silva'
p1141
sg20
S'1402296'
p1142
sg22
g1141
sg23
(lp1143
sssS'Mendiola'
p1144
(dp1145
S'Malia'
p1146
(dp1147
g8
(lp1148
sg10
g1144
sg11
S'PHYS-6C-01-LEC-Intro Phys III-62368 and PHYS-6C-01A-DIS-Intro Phys III-62369'
p1149
sg13
S'mammendi@ucsc.edu'
p1150
sg15
S'4934'
p1151
sg17
g1146
sg18
S'Malia Mendiola'
p1152
sg20
S'1483783'
p1153
sg22
g1152
sg23
(lp1154
sssS'Donayre'
p1155
(dp1156
S'Christopher'
p1157
(dp1158
g8
(lp1159
sg10
g1155
sg11
S'PHYS-6C-01-LEC-Intro Phys III-62368 and PHYS-6C-01A-DIS-Intro Phys III-62369'
p1160
sg13
S'cdonayre@ucsc.edu'
p1161
sg15
S'4062'
p1162
sg17
g1157
sg18
S'Christopher Donayre'
p1163
sg20
S'1454824'
p1164
sg22
g1163
sg23
(lp1165
sssS'Willis'
p1166
(dp1167
S'Kristopher'
p1168
(dp1169
g8
(lp1170
sg10
g1166
sg11
S'PHYS-6C-01-LEC-Intro Phys III-62368 and PHYS-6C-01B-DIS-Intro Phys III-62370'
p1171
sg13
S'kawillis@ucsc.edu'
p1172
sg15
S'20066'
p1173
sg17
g1168
sg18
S'Kristopher Willis'
p1174
sg20
S'1483080'
p1175
sg22
g1174
sg23
(lp1176
sssS'Nunez'
p1177
(dp1178
S'Micael'
p1179
(dp1180
g8
(lp1181
sg10
g1177
sg11
S'PHYS-6C-01-LEC-Intro Phys III-62368 and PHYS-6C-01A-DIS-Intro Phys III-62369'
p1182
sg13
S'miannune@ucsc.edu'
p1183
sg15
S'11168'
p1184
sg17
g1179
sg18
S'Micael Nunez'
p1185
sg20
S'1374773'
p1186
sg22
g1185
sg23
(lp1187
sssS'Soti'
p1188
(dp1189
S'Sakshi'
p1190
(dp1191
g8
(lp1192
sg10
g1188
sg11
S'PHYS-6C-01-LEC-Intro Phys III-62368'
p1193
sg13
S'ssoti@ucsc.edu'
p1194
sg15
S'11960'
p1195
sg17
g1190
sg18
S'Sakshi Soti'
p1196
sg20
S'1471320'
p1197
sg22
g1196
sg23
(lp1198
sssS'Yiu'
p1199
(dp1200
S'Sharon'
p1201
(dp1202
g8
(lp1203
sg10
g1199
sg11
S'PHYS-6C-01-LEC-Intro Phys III-62368'
p1204
sg13
S'shyiu@ucsc.edu'
p1205
sg15
S'2652'
p1206
sg17
g1201
sg18
S'Sharon Yiu'
p1207
sg20
S'1400404'
p1208
sg22
g1207
sg23
(lp1209
sssS'Macias'
p1210
(dp1211
S'Drew'
p1212
(dp1213
g8
(lp1214
sg10
g1210
sg11
S'PHYS-6C-01-LEC-Intro Phys III-62368'
p1215
sg13
S'drymacia@ucsc.edu'
p1216
sg15
S'11653'
p1217
sg17
g1212
sg18
S'Drew Macias'
p1218
sg20
S'1434899'
p1219
sg22
g1218
sg23
(lp1220
sssS'Alvarez'
p1221
(dp1222
S'Jocelyne'
p1223
(dp1224
g8
(lp1225
sg10
g1221
sg11
S'PHYS-6C-01-LEC-Intro Phys III-62368 and PHYS-6C-01B-DIS-Intro Phys III-62370'
p1226
sg13
S'jalvar28@ucsc.edu'
p1227
sg15
S'12157'
p1228
sg17
g1223
sg18
S'Jocelyne Alvarez'
p1229
sg20
S'1492167'
p1230
sg22
g1229
sg23
(lp1231
sssS'Yip'
p1232
(dp1233
S'Thomas'
p1234
(dp1235
g8
(lp1236
sg10
g1232
sg11
S'PHYS-6C-01-LEC-Intro Phys III-62368 and PHYS-6C-01A-DIS-Intro Phys III-62369'
p1237
sg13
S'thyip@ucsc.edu'
p1238
sg15
S'28964'
p1239
sg17
g1234
sg18
S'Thomas Yip'
p1240
sg20
S'1368085'
p1241
sg22
g1240
sg23
(lp1242
sssS'Valecillos'
p1243
(dp1244
S'Pablo'
p1245
(dp1246
g8
(lp1247
S'Brito Valecillos'
p1248
asg10
g1243
sg11
S'PHYS-6C-01-LEC-Intro Phys III-62368'
p1249
sg13
S'pbritova@ucsc.edu'
p1250
sg15
S'7369'
p1251
sg17
g1245
sg18
S'Pablo Brito Valecillos'
p1252
sg20
S'1559676'
p1253
sg22
g1252
sg23
(lp1254
sssS'Starr'
p1255
(dp1256
S'Max'
p1257
(dp1258
g8
(lp1259
sg10
g1255
sg11
S'PHYS-6C-01-LEC-Intro Phys III-62368 and PHYS-6C-01B-DIS-Intro Phys III-62370'
p1260
sg13
S'mostarr@ucsc.edu'
p1261
sg15
S'26825'
p1262
sg17
g1257
sg18
S'Max Starr'
p1263
sg20
S'1592347'
p1264
sg22
g1263
sg23
(lp1265
sssS'Trinh'
p1266
(dp1267
S'Joanne'
p1268
(dp1269
g8
(lp1270
sg10
g1266
sg11
S'PHYS-6C-01-LEC-Intro Phys III-62368 and PHYS-6C-01A-DIS-Intro Phys III-62369'
p1271
sg13
S'joptrinh@ucsc.edu'
p1272
sg15
S'7042'
p1273
sg17
g1268
sg18
S'Joanne Trinh'
p1274
sg20
S'1548029'
p1275
sg22
g1274
sg23
(lp1276
sssS'Nham'
p1277
(dp1278
S'Simon'
p1279
(dp1280
g8
(lp1281
sg10
g1277
sg11
S'PHYS-6C-01-LEC-Intro Phys III-62368'
p1282
sg13
S'sinham@ucsc.edu'
p1283
sg15
S'8772'
p1284
sg17
g1279
sg18
S'Simon Nham'
p1285
sg20
S'1406890'
p1286
sg22
g1285
sg23
(lp1287
sssS'Wargo'
p1288
(dp1289
S'Peter'
p1290
(dp1291
g8
(lp1292
sg10
g1288
sg11
S'PHYS-6C-01-LEC-Intro Phys III-62368'
p1293
sg13
S'pwargo@ucsc.edu'
p1294
sg15
S'29222'
p1295
sg17
g1290
sg18
S'Peter Wargo'
p1296
sg20
S'1325553'
p1297
sg22
g1296
sg23
(lp1298
sssS'Howard'
p1299
(dp1300
S'Jennifer'
p1301
(dp1302
g8
(lp1303
sg10
g1299
sg11
S'PHYS-6C-01-LEC-Intro Phys III-62368'
p1304
sg13
S'jealhowa@ucsc.edu'
p1305
sg15
S'4505'
p1306
sg17
g1301
sg18
S'Jennifer Howard'
p1307
sg20
S'1469579'
p1308
sg22
g1307
sg23
(lp1309
sssS'Aniceto'
p1310
(dp1311
S'Renea'
p1312
(dp1313
g8
(lp1314
sg10
g1310
sg11
S'PHYS-6C-01-LEC-Intro Phys III-62368'
p1315
sg13
S'raniceto@ucsc.edu'
p1316
sg15
S'19445'
p1317
sg17
g1312
sg18
S'Renea Aniceto'
p1318
sg20
S'1418967'
p1319
sg22
g1318
sg23
(lp1320
sssS'Manatad'
p1321
(dp1322
S'Norbert'
p1323
(dp1324
g8
(lp1325
sg10
g1321
sg11
S'PHYS-6C-01-LEC-Intro Phys III-62368 and PHYS-6C-01A-DIS-Intro Phys III-62369'
p1326
sg13
S'nmanatad@ucsc.edu'
p1327
sg15
S'5150'
p1328
sg17
g1323
sg18
S'Norbert Manatad'
p1329
sg20
S'1493282'
p1330
sg22
g1329
sg23
(lp1331
sssS'Cruz'
p1332
(dp1333
S'Febby'
p1334
(dp1335
g8
(lp1336
S'Allieghian Dela Cruz'
p1337
aS'Dela Cruz'
p1338
asg10
g1332
sg11
S'PHYS-6C-01-LEC-Intro Phys III-62368'
p1339
sg13
S'fdelacru@ucsc.edu'
p1340
sg15
S'5622'
p1341
sg17
g1334
sg18
S'Febby Allieghian Dela Cruz'
p1342
sg20
S'1507825'
p1343
sg22
g1342
sg23
(lp1344
sssS'Dhukuchhu'
p1345
(dp1346
S'Binu'
p1347
(dp1348
g8
(lp1349
sg10
g1345
sg11
S'PHYS-6C-01-LEC-Intro Phys III-62368 and PHYS-6C-01A-DIS-Intro Phys III-62369'
p1350
sg13
S'bdhukuch@ucsc.edu'
p1351
sg15
S'20669'
p1352
sg17
g1347
sg18
S'Binu Dhukuchhu'
p1353
sg20
S'1536625'
p1354
sg22
g1353
sg23
(lp1355
sssS'Ibrahim'
p1356
(dp1357
S'Yaman'
p1358
(dp1359
g8
(lp1360
sg10
g1356
sg11
S'PHYS-6C-01-LEC-Intro Phys III-62368'
p1361
sg13
S'ymibrahi@ucsc.edu'
p1362
sg15
S'12403'
p1363
sg17
g1358
sg18
S'Yaman Ibrahim'
p1364
sg20
S'1517866'
p1365
sg22
g1364
sg23
(lp1366
sssS'Bui'
p1367
(dp1368
S'Huy'
p1369
(dp1370
g8
(lp1371
sg10
g1367
sg11
S'PHYS-6C-01-LEC-Intro Phys III-62368 and PHYS-6C-01B-DIS-Intro Phys III-62370'
p1372
sg13
S'humbui@ucsc.edu'
p1373
sg15
S'5136'
p1374
sg17
g1369
sg18
S'Huy Bui'
p1375
sg20
S'1492831'
p1376
sg22
g1375
sg23
(lp1377
sssS'Corr'
p1378
(dp1379
S'Kaley'
p1380
(dp1381
g8
(lp1382
sg10
g1378
sg11
S'PHYS-6C-01-LEC-Intro Phys III-62368'
p1383
sg13
S'kecorr@ucsc.edu'
p1384
sg15
S'9896'
p1385
sg17
g1380
sg18
S'Kaley Corr'
p1386
sg20
S'1527974'
p1387
sg22
g1386
sg23
(lp1388
sssS'Battoo'
p1389
(dp1390
S'Harpreet'
p1391
(dp1392
g8
(lp1393
sg10
g1389
sg11
S'PHYS-6C-01-LEC-Intro Phys III-62368'
p1394
sg13
S'hbattoo@ucsc.edu'
p1395
sg15
S'11900'
p1396
sg17
g1391
sg18
S'Harpreet Battoo'
p1397
sg20
S'1464898'
p1398
sg22
g1397
sg23
(lp1399
sssS'Smarduch'
p1400
(dp1401
S'Steve'
p1402
(dp1403
g8
(lp1404
sg10
g1400
sg11
S'PHYS-6C-01-LEC-Intro Phys III-62368'
p1405
sg13
S'ssmarduc@ucsc.edu'
p1406
sg15
S'11997'
p1407
sg17
g1402
sg18
S'Steve Smarduch'
p1408
sg20
S'1476291'
p1409
sg22
g1408
sg23
(lp1410
sssS'Greenberg'
p1411
(dp1412
S'Benjamin'
p1413
(dp1414
g8
(lp1415
sg10
g1411
sg11
S'PHYS-6C-01-LEC-Intro Phys III-62368 and PHYS-6C-01A-DIS-Intro Phys III-62369'
p1416
sg13
S'beagreen@ucsc.edu'
p1417
sg15
S'4178'
p1418
sg17
g1413
sg18
S'Benjamin Greenberg'
p1419
sg20
S'1459275'
p1420
sg22
g1419
sg23
(lp1421
sssS'Finkel'
p1422
(dp1423
S'Teale'
p1424
(dp1425
g8
(lp1426
sg10
g1422
sg11
S'PHYS-6C-01-LEC-Intro Phys III-62368 and PHYS-6C-01A-DIS-Intro Phys III-62369'
p1427
sg13
S'tfinkel@ucsc.edu'
p1428
sg15
S'11288'
p1429
sg17
g1424
sg18
S'Teale Finkel'
p1430
sg20
S'1397110'
p1431
sg22
g1430
sg23
(lp1432
sssS'Dilbeck'
p1433
(dp1434
S'Mikayla'
p1435
(dp1436
g8
(lp1437
sg10
g1433
sg11
S'PHYS-6C-01-LEC-Intro Phys III-62368'
p1438
sg13
S'mdilbeck@ucsc.edu'
p1439
sg15
S'4091'
p1440
sg17
g1435
sg18
S'Mikayla Dilbeck'
p1441
sg20
S'1456541'
p1442
sg22
g1441
sg23
(lp1443
sssS'Deva'
p1444
(dp1445
S'Sarah'
p1446
(dp1447
g8
(lp1448
sg10
g1444
sg11
S'PHYS-6C-01-LEC-Intro Phys III-62368 and PHYS-6C-01A-DIS-Intro Phys III-62369'
p1449
sg13
S'sadeva@ucsc.edu'
p1450
sg15
S'14485'
p1451
sg17
g1446
sg18
S'Sarah Deva'
p1452
sg20
S'1458399'
p1453
sg22
g1452
sg23
(lp1454
sssS'Nguyen'
p1455
(dp1456
S'Kathy'
p1457
(dp1458
g8
(lp1459
sg10
g1455
sg11
S'PHYS-6C-01-LEC-Intro Phys III-62368 and PHYS-6C-01A-DIS-Intro Phys III-62369'
p1460
sg13
S'knguye95@ucsc.edu'
p1461
sg15
S'4662'
p1462
sg17
g1457
sg18
S'Kathy Nguyen'
p1463
sg20
S'1475654'
p1464
sg22
g1463
sg23
(lp1465
ssS'Minh'
p1466
(dp1467
g8
(lp1468
S'Mathias Nguyen'
p1469
asg10
S'Nguyen'
p1470
sg11
S'PHYS-6C-01-LEC-Intro Phys III-62368 and PHYS-6C-01A-DIS-Intro Phys III-62369'
p1471
sg13
S'mnguy103@ucsc.edu'
p1472
sg15
S'4201'
p1473
sg17
g1466
sg18
S'Minh Mathias Nguyen'
p1474
sg20
S'1460023'
p1475
sg22
g1474
sg23
(lp1476
ssS'Susan'
p1477
(dp1478
g8
(lp1479
sg10
S'Nguyen'
p1480
sg11
S'PHYS-6C-01-LEC-Intro Phys III-62368'
p1481
sg13
S'sunnguye@ucsc.edu'
p1482
sg15
S'9278'
p1483
sg17
g1477
sg18
S'Susan Nguyen'
p1484
sg20
S'1465572'
p1485
sg22
g1484
sg23
(lp1486
ssS'Vi'
p1487
(dp1488
g8
(lp1489
sg10
S'Nguyen'
p1490
sg11
S'PHYS-6C-01-LEC-Intro Phys III-62368'
p1491
sg13
S'vnguye89@ucsc.edu'
p1492
sg15
S'23708'
p1493
sg17
g1487
sg18
S'Vi Nguyen'
p1494
sg20
S'1596504'
p1495
sg22
g1494
sg23
(lp1496
ssS'Timothy'
p1497
(dp1498
g8
(lp1499
sg10
S'Nguyen'
p1500
sg11
S'PHYS-6C-01-LEC-Intro Phys III-62368'
p1501
sg13
S'ticunguy@ucsc.edu'
p1502
sg15
S'14331'
p1503
sg17
g1497
sg18
S'Timothy Nguyen'
p1504
sg20
S'1435509'
p1505
sg22
g1504
sg23
(lp1506
ssS'Sabrina'
p1507
(dp1508
g8
(lp1509
sg10
S'Nguyen'
p1510
sg11
S'PHYS-6C-01-LEC-Intro Phys III-62368'
p1511
sg13
S'snguye22@ucsc.edu'
p1512
sg15
S'19928'
p1513
sg17
g1507
sg18
S'Sabrina Nguyen'
p1514
sg20
S'1470393'
p1515
sg22
g1514
sg23
(lp1516
sssS'Jensen'
p1517
(dp1518
S'Claire'
p1519
(dp1520
g8
(lp1521
sg10
g1517
sg11
S'PHYS-6C-01-LEC-Intro Phys III-62368 and PHYS-6C-01B-DIS-Intro Phys III-62370'
p1522
sg13
S'cejensen@ucsc.edu'
p1523
sg15
S'4279'
p1524
sg17
g1519
sg18
S'Claire Jensen'
p1525
sg20
S'1462765'
p1526
sg22
g1525
sg23
(lp1527
sssS'Pirzada'
p1528
(dp1529
S'Arsalon'
p1530
(dp1531
g8
(lp1532
sg10
g1528
sg11
S'PHYS-6C-01-LEC-Intro Phys III-62368 and PHYS-6C-01A-DIS-Intro Phys III-62369'
p1533
sg13
S'apirzada@ucsc.edu'
p1534
sg15
S'9385'
p1535
sg17
g1530
sg18
S'Arsalon Pirzada'
p1536
sg20
S'1477273'
p1537
sg22
g1536
sg23
(lp1538
sssS'Pham'
p1539
(dp1540
S'Thuy-Linh'
p1541
(dp1542
g8
(lp1543
sg10
g1539
sg11
S'PHYS-6C-01-LEC-Intro Phys III-62368 and PHYS-6C-01A-DIS-Intro Phys III-62369'
p1544
sg13
S'thlpham@ucsc.edu'
p1545
sg15
S'14431'
p1546
sg17
g1541
sg18
S'Thuy-Linh Pham'
p1547
sg20
S'1451699'
p1548
sg22
g1547
sg23
(lp1549
sssS'Beri'
p1550
(dp1551
S'Krishna'
p1552
(dp1553
g8
(lp1554
sg10
g1550
sg11
S'PHYS-6C-01-LEC-Intro Phys III-62368'
p1555
sg13
S'kberi@ucsc.edu'
p1556
sg15
S'19868'
p1557
sg17
g1552
sg18
S'Krishna Beri'
p1558
sg20
S'1464801'
p1559
sg22
g1558
sg23
(lp1560
sssS'Enshaie'
p1561
(dp1562
S'Elliot'
p1563
(dp1564
g8
(lp1565
sg10
g1561
sg11
S'PHYS-6C-01-LEC-Intro Phys III-62368 and PHYS-6C-01A-DIS-Intro Phys III-62369'
p1566
sg13
S'eenshaie@ucsc.edu'
p1567
sg15
S'20029'
p1568
sg17
g1563
sg18
S'Elliot Enshaie'
p1569
sg20
S'1478417'
p1570
sg22
g1569
sg23
(lp1571
sssS'Chou'
p1572
(dp1573
S'Nicholas'
p1574
(dp1575
g8
(lp1576
sg10
g1572
sg11
S'PHYS-6C-01-LEC-Intro Phys III-62368 and PHYS-6C-01A-DIS-Intro Phys III-62369'
p1577
sg13
S'nychou@ucsc.edu'
p1578
sg15
S'4185'
p1579
sg17
g1574
sg18
S'Nicholas Chou'
p1580
sg20
S'1459139'
p1581
sg22
g1580
sg23
(lp1582
sssS'Chow'
p1583
(dp1584
S'Whitney'
p1585
(dp1586
g8
(lp1587
sg10
g1583
sg11
S'PHYS-6C-01-LEC-Intro Phys III-62368 and PHYS-6C-01A-DIS-Intro Phys III-62369'
p1588
sg13
S'wjchow@ucsc.edu'
p1589
sg15
S'4543'
p1590
sg17
g1585
sg18
S'Whitney Chow'
p1591
sg20
S'1471729'
p1592
sg22
g1591
sg23
(lp1593
sssS'Walker'
p1594
(dp1595
S'Jamie'
p1596
(dp1597
g8
(lp1598
sg10
g1594
sg11
S'PHYS-6C-01-LEC-Intro Phys III-62368'
p1599
sg13
S'jadywalk@ucsc.edu'
p1600
sg15
S'8991'
p1601
sg17
g1596
sg18
S'Jamie Walker'
p1602
sg20
S'1429467'
p1603
sg22
g1602
sg23
(lp1604
sssS'Ciambrone'
p1605
(dp1606
S'Mary'
p1607
(dp1608
g8
(lp1609
sg10
g1605
sg11
S'PHYS-6C-01-LEC-Intro Phys III-62368 and PHYS-6C-01A-DIS-Intro Phys III-62369'
p1610
sg13
S'mciambro@ucsc.edu'
p1611
sg15
S'6713'
p1612
sg17
g1607
sg18
S'Mary Ciambrone'
p1613
sg20
S'1533064'
p1614
sg22
g1613
sg23
(lp1615
sssS'Furuyama'
p1616
(dp1617
S'Sora'
p1618
(dp1619
g8
(lp1620
sg10
g1616
sg11
S'PHYS-6C-01-LEC-Intro Phys III-62368 and PHYS-6C-01B-DIS-Intro Phys III-62370'
p1621
sg13
S'sfuruyam@ucsc.edu'
p1622
sg15
S'9440'
p1623
sg17
g1618
sg18
S'Sora Furuyama'
p1624
sg20
S'1482548'
p1625
sg22
g1624
sg23
(lp1626
sssS'Sousa'
p1627
(dp1628
S'Ingrid'
p1629
(dp1630
g8
(lp1631
sg10
g1627
sg11
S'PHYS-6C-01-LEC-Intro Phys III-62368'
p1632
sg13
S'isousa@ucsc.edu'
p1633
sg15
S'16754'
p1634
sg17
g1629
sg18
S'Ingrid Sousa'
p1635
sg20
S'1411339'
p1636
sg22
g1635
sg23
(lp1637
sssS'Wilder'
p1638
(dp1639
S'Dana'
p1640
(dp1641
g8
(lp1642
sg10
g1638
sg11
S'PHYS-6C-01-LEC-Intro Phys III-62368 and PHYS-6C-01A-DIS-Intro Phys III-62369'
p1643
sg13
S'dtwilder@ucsc.edu'
p1644
sg15
S'11923'
p1645
sg17
g1640
sg18
S'Dana Wilder'
p1646
sg20
S'1466214'
p1647
sg22
g1646
sg23
(lp1648
sssS'Rodriguez'
p1649
(dp1650
S'Itandehui'
p1651
(dp1652
g8
(lp1653
sg10
g1649
sg11
S'PHYS-6C-01-LEC-Intro Phys III-62368 and PHYS-6C-01A-DIS-Intro Phys III-62369'
p1654
sg13
S'ilrodrig@ucsc.edu'
p1655
sg15
S'4892'
p1656
sg17
g1651
sg18
S'Itandehui Rodriguez'
p1657
sg20
S'1482504'
p1658
sg22
g1657
sg23
(lp1659
sssS'Craig'
p1660
(dp1661
S'Justin'
p1662
(dp1663
g8
(lp1664
sg10
g1660
sg11
S'PHYS-6C-01-LEC-Intro Phys III-62368 and PHYS-6C-01A-DIS-Intro Phys III-62369'
p1665
sg13
S'jhcraig@ucsc.edu'
p1666
sg15
S'4118'
p1667
sg17
g1662
sg18
S'Justin Craig'
p1668
sg20
S'1456833'
p1669
sg22
g1668
sg23
(lp1670
sssS'Bennett'
p1671
(dp1672
S'Kyle'
p1673
(dp1674
g8
(lp1675
sg10
g1671
sg11
S'PHYS-6C-01-LEC-Intro Phys III-62368'
p1676
sg13
S'kynbenne@ucsc.edu'
p1677
sg15
S'6980'
p1678
sg17
g1673
sg18
S'Kyle Bennett'
p1679
sg20
S'1547208'
p1680
sg22
g1679
sg23
(lp1681
sssS'Leon'
p1682
(dp1683
S'Jennifer'
p1684
(dp1685
g8
(lp1686
sg10
g1682
sg11
S'PHYS-6C-01-LEC-Intro Phys III-62368 and PHYS-6C-01A-DIS-Intro Phys III-62369'
p1687
sg13
S'jleon5@ucsc.edu'
p1688
sg15
S'9483'
p1689
sg17
g1684
sg18
S'Jennifer Leon'
p1690
sg20
S'1487589'
p1691
sg22
g1690
sg23
(lp1692
sssS'Martinez'
p1693
(dp1694
S'Jenna'
p1695
(dp1696
g8
(lp1697
sg10
g1693
sg11
S'PHYS-6C-01-LEC-Intro Phys III-62368 and PHYS-6C-01A-DIS-Intro Phys III-62369'
p1698
sg13
S'jmart120@ucsc.edu'
p1699
sg15
S'4082'
p1700
sg17
g1695
sg18
S'Jenna Martinez'
p1701
sg20
S'1455406'
p1702
sg22
g1701
sg23
(lp1703
sssS'Vuong'
p1704
(dp1705
S'Suzanne'
p1706
(dp1707
g8
(lp1708
sg10
g1704
sg11
S'PHYS-6C-01-LEC-Intro Phys III-62368 and PHYS-6C-01B-DIS-Intro Phys III-62370'
p1709
sg13
S'sqvuong@ucsc.edu'
p1710
sg15
S'20109'
p1711
sg17
g1706
sg18
S'Suzanne Vuong'
p1712
sg20
S'1487682'
p1713
sg22
g1712
sg23
(lp1714
sssS'Raya'
p1715
(dp1716
S'Jaciel'
p1717
(dp1718
g8
(lp1719
sg10
g1715
sg11
S'PHYS-6C-01-LEC-Intro Phys III-62368'
p1720
sg13
S'jraya@ucsc.edu'
p1721
sg15
S'1668'
p1722
sg17
g1717
sg18
S'Jaciel Raya'
p1723
sg20
S'1352506'
p1724
sg22
g1723
sg23
(lp1725
sssS'Lewis'
p1726
(dp1727
S'Claire'
p1728
(dp1729
g8
(lp1730
sg10
g1726
sg11
S'PHYS-6C-01-LEC-Intro Phys III-62368 and PHYS-6C-01B-DIS-Intro Phys III-62370'
p1731
sg13
S'clmlewis@ucsc.edu'
p1732
sg15
S'20039'
p1733
sg17
g1728
sg18
S'Claire Lewis'
p1734
sg20
S'1479755'
p1735
sg22
g1734
sg23
(lp1736
sssS'Pollak'
p1737
(dp1738
S'Patrick'
p1739
(dp1740
g8
(lp1741
sg10
g1737
sg11
S'PHYS-6C-01-LEC-Intro Phys III-62368 and PHYS-6C-01A-DIS-Intro Phys III-62369'
p1742
sg13
S'ppollak@ucsc.edu'
p1743
sg15
S'12849'
p1744
sg17
g1739
sg18
S'Patrick Pollak'
p1745
sg20
S'1558668'
p1746
sg22
g1745
sg23
(lp1747
sssS'Xu'
p1748
(dp1749
S'William'
p1750
(dp1751
g8
(lp1752
sg10
g1748
sg11
S'PHYS-6C-01-LEC-Intro Phys III-62368'
p1753
sg13
S'wixu@ucsc.edu'
p1754
sg15
S'20980'
p1755
sg17
g1750
sg18
S'William Xu'
p1756
sg20
S'1564588'
p1757
sg22
g1756
sg23
(lp1758
sssS'Lancaster'
p1759
(dp1760
S'Emily'
p1761
(dp1762
g8
(lp1763
sg10
g1759
sg11
S'PHYS-6C-01-LEC-Intro Phys III-62368 and PHYS-6C-01B-DIS-Intro Phys III-62370'
p1764
sg13
S'elancast@ucsc.edu'
p1765
sg15
S'17804'
p1766
sg17
g1761
sg18
S'Emily Lancaster'
p1767
sg20
S'1527336'
p1768
sg22
g1767
sg23
(lp1769
sssS'Carmona'
p1770
(dp1771
S'Alexander'
p1772
(dp1773
g8
(lp1774
sg10
g1770
sg11
S'PHYS-6C-01-LEC-Intro Phys III-62368 and PHYS-6C-01A-DIS-Intro Phys III-62369'
p1775
sg13
S'aljocarm@ucsc.edu'
p1776
sg15
S'19222'
p1777
sg17
g1772
sg18
S'Alexander Carmona'
p1778
sg20
S'1398541'
p1779
sg22
g1778
sg23
(lp1780
sssS'Ramirez-Santos'
p1781
(dp1782
S'Brianna'
p1783
(dp1784
g8
(lp1785
sg10
g1781
sg11
S'PHYS-6C-01-LEC-Intro Phys III-62368 and PHYS-6C-01A-DIS-Intro Phys III-62369'
p1786
sg13
S'bramir15@ucsc.edu'
p1787
sg15
S'8993'
p1788
sg17
g1783
sg18
S'Brianna Ramirez-Santos'
p1789
sg20
S'1430012'
p1790
sg22
g1789
sg23
(lp1791
sssS'Alla'
p1792
(dp1793
S'Sree'
p1794
(dp1795
g8
(lp1796
S'Divya Alla'
p1797
asg10
g1792
sg11
S'PHYS-6C-01-LEC-Intro Phys III-62368 and PHYS-6C-01B-DIS-Intro Phys III-62370'
p1798
sg13
S'salla@ucsc.edu'
p1799
sg15
S'14148'
p1800
sg17
g1794
sg18
S'Sree Divya Alla'
p1801
sg20
S'1414617'
p1802
sg22
g1801
sg23
(lp1803
sssS'Bogle'
p1804
(dp1805
S'Lauren'
p1806
(dp1807
g8
(lp1808
sg10
g1804
sg11
S'PHYS-6C-01-LEC-Intro Phys III-62368'
p1809
sg13
S'lbogle@ucsc.edu'
p1810
sg15
S'3544'
p1811
sg17
g1806
sg18
S'Lauren Bogle'
p1812
sg20
S'1431413'
p1813
sg22
g1812
sg23
(lp1814
sssS'Lim'
p1815
(dp1816
S'Brittany'
p1817
(dp1818
g8
(lp1819
sg10
g1815
sg11
S'PHYS-6C-01-LEC-Intro Phys III-62368 and PHYS-6C-01A-DIS-Intro Phys III-62369'
p1820
sg13
S'bjlim@ucsc.edu'
p1821
sg15
S'7289'
p1822
sg17
g1817
sg18
S'Brittany Lim'
p1823
sg20
S'1205186'
p1824
sg22
g1823
sg23
(lp1825
sssS'Lin'
p1826
(dp1827
S'Ju'
p1828
(dp1829
g8
(lp1830
S'Yu Lin'
p1831
asg10
g1826
sg11
S'PHYS-6C-01-LEC-Intro Phys III-62368'
p1832
sg13
S'jlin72@ucsc.edu'
p1833
sg15
S'4634'
p1834
sg17
g1828
sg18
S'Ju Yu Lin'
p1835
sg20
S'1475919'
p1836
sg22
g1835
sg23
(lp1837
sssS'Modlin'
p1838
(dp1839
S'Ryan'
p1840
(dp1841
g8
(lp1842
sg10
g1838
sg11
S'PHYS-6C-01-LEC-Intro Phys III-62368 and PHYS-6C-01A-DIS-Intro Phys III-62369'
p1843
sg13
S'rmodlin@ucsc.edu'
p1844
sg15
S'4153'
p1845
sg17
g1840
sg18
S'Ryan Modlin'
p1846
sg20
S'1458660'
p1847
sg22
g1846
sg23
(lp1848
sssS'Evanovich'
p1849
(dp1850
S'Devon'
p1851
(dp1852
g8
(lp1853
sg10
g1849
sg11
S'PHYS-6C-01-LEC-Intro Phys III-62368 and PHYS-6C-01A-DIS-Intro Phys III-62369'
p1854
sg13
S'devanovi@ucsc.edu'
p1855
sg15
S'16699'
p1856
sg17
g1851
sg18
S'Devon Evanovich'
p1857
sg20
S'1405779'
p1858
sg22
g1857
sg23
(lp1859
sssS'Liu'
p1860
(dp1861
S'Xuan'
p1862
(dp1863
g8
(lp1864
S'Qi Liu'
p1865
asg10
g1860
sg11
S'PHYS-6C-01-LEC-Intro Phys III-62368 and PHYS-6C-01A-DIS-Intro Phys III-62369'
p1866
sg13
S'xliu87@ucsc.edu'
p1867
sg15
S'17784'
p1868
sg17
g1862
sg18
S'Xuan Qi Liu'
p1869
sg20
S'1526159'
p1870
sg22
g1869
sg23
(lp1871
sssS'Rubio'
p1872
(dp1873
S'Brandy'
p1874
(dp1875
g8
(lp1876
sg10
g1872
sg11
S'PHYS-6C-01-LEC-Intro Phys III-62368 and PHYS-6C-01A-DIS-Intro Phys III-62369'
p1877
sg13
S'bmrubio@ucsc.edu'
p1878
sg15
S'14247'
p1879
sg17
g1874
sg18
S'Brandy Rubio'
p1880
sg20
S'1425285'
p1881
sg22
g1880
sg23
(lp1882
sssS'Rubin'
p1883
(dp1884
S'Kelly'
p1885
(dp1886
g8
(lp1887
sg10
g1883
sg11
S'PHYS-6C-01-LEC-Intro Phys III-62368 and PHYS-6C-01A-DIS-Intro Phys III-62369'
p1888
sg13
S'kgrubin@ucsc.edu'
p1889
sg15
S'4743'
p1890
sg17
g1885
sg18
S'Kelly Rubin'
p1891
sg20
S'1478324'
p1892
sg22
g1891
sg23
(lp1893
sssS'Starks'
p1894
(dp1895
S'Akira'
p1896
(dp1897
g8
(lp1898
sg10
g1894
sg11
S'PHYS-6C-01-LEC-Intro Phys III-62368 and PHYS-6C-01A-DIS-Intro Phys III-62369'
p1899
sg13
S'atstarks@ucsc.edu'
p1900
sg15
S'11764'
p1901
sg17
g1896
sg18
S'Akira Starks'
p1902
sg20
S'1449827'
p1903
sg22
g1902
sg23
(lp1904
sssS'Solovieva'
p1905
(dp1906
S'Irina'
p1907
(dp1908
g8
(lp1909
sg10
g1905
sg11
S'PHYS-6C-01-LEC-Intro Phys III-62368'
p1910
sg13
S'isolovie@ucsc.edu'
p1911
sg15
S'14497'
p1912
sg17
g1907
sg18
S'Irina Solovieva'
p1913
sg20
S'1458852'
p1914
sg22
g1913
sg23
(lp1915
sssS'Gutierrez'
p1916
(dp1917
S'Amanda'
p1918
(dp1919
g8
(lp1920
sg10
g1916
sg11
S'PHYS-6C-01-LEC-Intro Phys III-62368 and PHYS-6C-01A-DIS-Intro Phys III-62369'
p1921
sg13
S'ammgutie@ucsc.edu'
p1922
sg15
S'19431'
p1923
sg17
g1918
sg18
S'Amanda Gutierrez'
p1924
sg20
S'1418770'
p1925
sg22
g1924
sg23
(lp1926
ssS'Carlos'
p1927
(dp1928
g8
(lp1929
sg10
S'Gutierrez'
p1930
sg11
S'PHYS-6C-01-LEC-Intro Phys III-62368'
p1931
sg13
S'caanguti@ucsc.edu'
p1932
sg15
S'12984'
p1933
sg17
g1927
sg18
S'Carlos Gutierrez'
p1934
sg20
S'1332863'
p1935
sg22
g1934
sg23
(lp1936
sssS'Abercrombie'
p1937
(dp1938
S'Kaitlyn'
p1939
(dp1940
g8
(lp1941
sg10
g1937
sg11
S'PHYS-6C-01-LEC-Intro Phys III-62368'
p1942
sg13
S'kabercro@ucsc.edu'
p1943
sg15
S'20668'
p1944
sg17
g1939
sg18
S'Kaitlyn Abercrombie'
p1945
sg20
S'1536621'
p1946
sg22
g1945
sg23
(lp1947
sssS'Williams'
p1948
(dp1949
S'Briana'
p1950
(dp1951
g8
(lp1952
sg10
g1948
sg11
S'PHYS-6C-01-LEC-Intro Phys III-62368 and PHYS-6C-01A-DIS-Intro Phys III-62369'
p1953
sg13
S'bkwillia@ucsc.edu'
p1954
sg15
S'5764'
p1955
sg17
g1950
sg18
S'Briana Williams'
p1956
sg20
S'1510903'
p1957
sg22
g1956
sg23
(lp1958
sssS'Pabbi'
p1959
(dp1960
S'Deeksha'
p1961
(dp1962
g8
(lp1963
sg10
g1959
sg11
S'PHYS-6C-01-LEC-Intro Phys III-62368 and PHYS-6C-01A-DIS-Intro Phys III-62369'
p1964
sg13
S'dpabbi@ucsc.edu'
p1965
sg15
S'22536'
p1966
sg17
g1961
sg18
S'Deeksha Pabbi'
p1967
sg20
S'1423121'
p1968
sg22
g1967
sg23
(lp1969
sssS'Real'
p1970
(dp1971
S'Javier'
p1972
(dp1973
g8
(lp1974
S'Del Real'
p1975
asg10
g1970
sg11
S'PHYS-6C-01-LEC-Intro Phys III-62368'
p1976
sg13
S'jddelrea@ucsc.edu'
p1977
sg15
S'3104'
p1978
sg17
g1972
sg18
S'Javier Del Real'
p1979
sg20
S'1416070'
p1980
sg22
g1979
sg23
(lp1981
sssS'Sveiven'
p1982
(dp1983
S'Rachel'
p1984
(dp1985
g8
(lp1986
sg10
g1982
sg11
S'PHYS-6C-01-LEC-Intro Phys III-62368'
p1987
sg13
S'rsveiven@ucsc.edu'
p1988
sg15
S'20679'
p1989
sg17
g1984
sg18
S'Rachel Sveiven'
p1990
sg20
S'1541389'
p1991
sg22
g1990
sg23
(lp1992
sssS'Leyva'
p1993
(dp1994
S'Michaela'
p1995
(dp1996
g8
(lp1997
sg10
g1993
sg11
S'PHYS-6C-01-LEC-Intro Phys III-62368 and PHYS-6C-01A-DIS-Intro Phys III-62369'
p1998
sg13
S'mmleyva@ucsc.edu'
p1999
sg15
S'27237'
p2000
sg17
g1995
sg18
S'Michaela Leyva'
p2001
sg20
S'1425076'
p2002
sg22
g2001
sg23
(lp2003
sssS'Kweon'
p2004
(dp2005
S'Hyeok'
p2006
(dp2007
g8
(lp2008
S'Jin Kweon'
p2009
asg10
g2004
sg11
S'PHYS-6C-01-LEC-Intro Phys III-62368 and PHYS-6C-01A-DIS-Intro Phys III-62369'
p2010
sg13
S'hkweon@ucsc.edu'
p2011
sg15
S'17974'
p2012
sg17
g2006
sg18
S'Hyeok Jin Kweon'
p2013
sg20
S'1542202'
p2014
sg22
g2013
sg23
(lp2015
sssS'Quinley'
p2016
(dp2017
S'Morgan'
p2018
(dp2019
g8
(lp2020
sg10
g2016
sg11
S'PHYS-6C-01-LEC-Intro Phys III-62368 and PHYS-6C-01B-DIS-Intro Phys III-62370'
p2021
sg13
S'mquinley@ucsc.edu'
p2022
sg15
S'9153'
p2023
sg17
g2018
sg18
S'Morgan Quinley'
p2024
sg20
S'1452909'
p2025
sg22
g2024
sg23
(lp2026
sssS'Woodruff'
p2027
(dp2028
S'Shania'
p2029
(dp2030
g8
(lp2031
sg10
g2027
sg11
S'PHYS-6C-01-LEC-Intro Phys III-62368 and PHYS-6C-01A-DIS-Intro Phys III-62369'
p2032
sg13
S'slwoodru@ucsc.edu'
p2033
sg15
S'4643'
p2034
sg17
g2029
sg18
S'Shania Woodruff'
p2035
sg20
S'1475039'
p2036
sg22
g2035
sg23
(lp2037
sssS'Carpenter'
p2038
(dp2039
S'Alexander'
p2040
(dp2041
g8
(lp2042
sg10
g2038
sg11
S'PHYS-6C-01-LEC-Intro Phys III-62368'
p2043
sg13
S'aycarpen@ucsc.edu'
p2044
sg15
S'4506'
p2045
sg17
g2040
sg18
S'Alexander Carpenter'
p2046
sg20
S'1470549'
p2047
sg22
g2046
sg23
(lp2048
sssS'Cligher'
p2049
(dp2050
S'Sarah'
p2051
(dp2052
g8
(lp2053
sg10
g2049
sg11
S'PHYS-6C-01-LEC-Intro Phys III-62368'
p2054
sg13
S'scligher@ucsc.edu'
p2055
sg15
S'14189'
p2056
sg17
g2051
sg18
S'Sarah Cligher'
p2057
sg20
S'1418630'
p2058
sg22
g2057
sg23
(lp2059
sssS'Kim'
p2060
(dp2061
S'Byunghun'
p2062
(dp2063
g8
(lp2064
sg10
g2060
sg11
S'PHYS-6C-01-LEC-Intro Phys III-62368 and PHYS-6C-01B-DIS-Intro Phys III-62370'
p2065
sg13
S'bkim36@ucsc.edu'
p2066
sg15
S'4670'
p2067
sg17
g2062
sg18
S'Byunghun Kim'
p2068
sg20
S'1474549'
p2069
sg22
g2068
sg23
(lp2070
sssS'Law'
p2071
(dp2072
S'Philip'
p2073
(dp2074
g8
(lp2075
sg10
g2071
sg11
S'PHYS-6C-01-LEC-Intro Phys III-62368 and PHYS-6C-01A-DIS-Intro Phys III-62369'
p2076
sg13
S'ptlaw@ucsc.edu'
p2077
sg15
S'9282'
p2078
sg17
g2073
sg18
S'Philip Law'
p2079
sg20
S'1467321'
p2080
sg22
g2079
sg23
(lp2081
sssS'Yu'
p2082
(dp2083
S'Edmund'
p2084
(dp2085
g8
(lp2086
sg10
g2082
sg11
S'PHYS-6C-01-LEC-Intro Phys III-62368'
p2087
sg13
S'eyu9@ucsc.edu'
p2088
sg15
S'4277'
p2089
sg17
g2084
sg18
S'Edmund Yu'
p2090
sg20
S'1463342'
p2091
sg22
g2090
sg23
(lp2092
sssS'Pereverzev'
p2093
(dp2094
S'Aleksandr'
p2095
(dp2096
g8
(lp2097
sg10
g2093
sg11
S'PHYS-6C-01-LEC-Intro Phys III-62368'
p2098
sg13
S'aperever@ucsc.edu'
p2099
sg15
S'9891'
p2100
sg17
g2095
sg18
S'Aleksandr Pereverzev'
p2101
sg20
S'1526651'
p2102
sg22
g2101
sg23
(lp2103
sssS'Kizer'
p2104
(dp2105
S'Lauren'
p2106
(dp2107
g8
(lp2108
sg10
g2104
sg11
S'PHYS-6C-01-LEC-Intro Phys III-62368'
p2109
sg13
S'lkizer@ucsc.edu'
p2110
sg15
S'2655'
p2111
sg17
g2106
sg18
S'Lauren Kizer'
p2112
sg20
S'1400767'
p2113
sg22
g2112
sg23
(lp2114
sssS'Niu'
p2115
(dp2116
S'Eric'
p2117
(dp2118
g8
(lp2119
sg10
g2115
sg11
S'PHYS-6C-01-LEC-Intro Phys III-62368 and PHYS-6C-01A-DIS-Intro Phys III-62369'
p2120
sg13
S'eniu@ucsc.edu'
p2121
sg15
S'19838'
p2122
sg17
g2117
sg18
S'Eric Niu'
p2123
sg20
S'1461922'
p2124
sg22
g2123
sg23
(lp2125
sssS'Adhulbodee'
p2126
(dp2127
S'Nancy'
p2128
(dp2129
g8
(lp2130
sg10
g2126
sg11
S'PHYS-6C-01-LEC-Intro Phys III-62368 and PHYS-6C-01A-DIS-Intro Phys III-62369'
p2131
sg13
S'nadhulbo@ucsc.edu'
p2132
sg15
S'7382'
p2133
sg17
g2128
sg18
S'Nancy Adhulbodee'
p2134
sg20
S'1334663'
p2135
sg22
g2134
sg23
(lp2136
sssS'Rejniak'
p2137
(dp2138
S'Anastasia'
p2139
(dp2140
g8
(lp2141
sg10
g2137
sg11
S'PHYS-6C-01-LEC-Intro Phys III-62368'
p2142
sg13
S'arejniak@ucsc.edu'
p2143
sg15
S'12121'
p2144
sg17
g2139
sg18
S'Anastasia Rejniak'
p2145
sg20
S'1488442'
p2146
sg22
g2145
sg23
(lp2147
sssS'Levenson'
p2148
(dp2149
S'Max'
p2150
(dp2151
g8
(lp2152
sg10
g2148
sg11
S'PHYS-6C-01-LEC-Intro Phys III-62368 and PHYS-6C-01A-DIS-Intro Phys III-62369'
p2153
sg13
S'matleven@ucsc.edu'
p2154
sg15
S'19831'
p2155
sg17
g2150
sg18
S'Max Levenson'
p2156
sg20
S'1463130'
p2157
sg22
g2156
sg23
(lp2158
sssS'Chan'
p2159
(dp2160
S'Tyler'
p2161
(dp2162
g8
(lp2163
sg10
g2159
sg11
S'PHYS-6C-01-LEC-Intro Phys III-62368 and PHYS-6C-01A-DIS-Intro Phys III-62369'
p2164
sg13
S'tycchan@ucsc.edu'
p2165
sg15
S'19792'
p2166
sg17
g2161
sg18
S'Tyler Chan'
p2167
sg20
S'1457825'
p2168
sg22
g2167
sg23
(lp2169
ssS'Victor'
p2170
(dp2171
g8
(lp2172
S'Kwan-Ho Chan'
p2173
asg10
S'Chan'
p2174
sg11
S'PHYS-6C-01-LEC-Intro Phys III-62368 and PHYS-6C-01A-DIS-Intro Phys III-62369'
p2175
sg13
S'vchan11@ucsc.edu'
p2176
sg15
S'14591'
p2177
sg17
g2170
sg18
S'Victor Kwan-Ho Chan'
p2178
sg20
S'1468829'
p2179
sg22
g2178
sg23
(lp2180
sssS'Falakfarsa'
p2181
(dp2182
S'Sarra'
p2183
(dp2184
g8
(lp2185
sg10
g2181
sg11
S'PHYS-6C-01-LEC-Intro Phys III-62368'
p2186
sg13
S'sfalakfa@ucsc.edu'
p2187
sg15
S'2591'
p2188
sg17
g2183
sg18
S'Sarra Falakfarsa'
p2189
sg20
S'1398745'
p2190
sg22
g2189
sg23
(lp2191
sssS'Tran'
p2192
(dp2193
S'Amy'
p2194
(dp2195
g8
(lp2196
sg10
g2192
sg11
S'PHYS-6C-01-LEC-Intro Phys III-62368 and PHYS-6C-01A-DIS-Intro Phys III-62369'
p2197
sg13
S'amaitran@ucsc.edu'
p2198
sg15
S'17164'
p2199
sg17
g2194
sg18
S'Amy Tran'
p2200
sg20
S'1461813'
p2201
sg22
g2200
sg23
(lp2202
ssS'Brian'
p2203
(dp2204
g8
(lp2205
sg10
S'Tran'
p2206
sg11
S'PHYS-6C-01-LEC-Intro Phys III-62368 and PHYS-6C-01A-DIS-Intro Phys III-62369'
p2207
sg13
S'btran15@ucsc.edu'
p2208
sg15
S'5862'
p2209
sg17
g2203
sg18
S'Brian Tran'
p2210
sg20
S'1408421'
p2211
sg22
g2210
sg23
(lp2212
ssS'Pauline'
p2213
(dp2214
g8
(lp2215
sg10
S'Tran'
p2216
sg11
S'PHYS-6C-01-LEC-Intro Phys III-62368 and PHYS-6C-01A-DIS-Intro Phys III-62369'
p2217
sg13
S'patran@ucsc.edu'
p2218
sg15
S'11926'
p2219
sg17
g2213
sg18
S'Pauline Tran'
p2220
sg20
S'1467010'
p2221
sg22
g2220
sg23
(lp2222
ssS'An'
p2223
(dp2224
g8
(lp2225
sg10
S'Tran'
p2226
sg11
S'PHYS-6C-01-LEC-Intro Phys III-62368'
p2227
sg13
S'atran16@ucsc.edu'
p2228
sg15
S'14094'
p2229
sg17
g2223
sg18
S'An Tran'
p2230
sg20
S'1285745'
p2231
sg22
g2230
sg23
(lp2232
ssS'Cassandra'
p2233
(dp2234
g8
(lp2235
sg10
S'Tran'
p2236
sg11
S'PHYS-6C-01-LEC-Intro Phys III-62368 and PHYS-6C-01A-DIS-Intro Phys III-62369'
p2237
sg13
S'caatran@ucsc.edu'
p2238
sg15
S'23716'
p2239
sg17
g2233
sg18
S'Cassandra Tran'
p2240
sg20
S'1596561'
p2241
sg22
g2240
sg23
(lp2242
sssS'Ramirez'
p2243
(dp2244
S'Luis'
p2245
(dp2246
g8
(lp2247
sg10
S'Ramirez'
p2248
sg11
S'PHYS-6C-01-LEC-Intro Phys III-62368 and PHYS-6C-01A-DIS-Intro Phys III-62369'
p2249
sg13
S'lhramire@ucsc.edu'
p2250
sg15
S'28385'
p2251
sg17
g2245
sg18
S'Luis Ramirez'
p2252
sg20
S'1560335'
p2253
sg22
g2252
sg23
(lp2254
ssS'Dinorah'
p2255
(dp2256
g8
(lp2257
sg10
g2243
sg11
S'PHYS-6C-01-LEC-Intro Phys III-62368 and PHYS-6C-01B-DIS-Intro Phys III-62370'
p2258
sg13
S'dimirami@ucsc.edu'
p2259
sg15
S'8833'
p2260
sg17
g2255
sg18
S'Dinorah Ramirez'
p2261
sg20
S'1411743'
p2262
sg22
g2261
sg23
(lp2263
sssS'Garcia'
p2264
(dp2265
S'Rosemary'
p2266
(dp2267
g8
(lp2268
sg10
g2264
sg11
S'PHYS-6C-01-LEC-Intro Phys III-62368 and PHYS-6C-01B-DIS-Intro Phys III-62370'
p2269
sg13
S'rgarci29@ucsc.edu'
p2270
sg15
S'16622'
p2271
sg17
g2266
sg18
S'Rosemary Garcia'
p2272
sg20
S'1399155'
p2273
sg22
g2272
sg23
(lp2274
sssS'Morris'
p2275
(dp2276
S'Chase'
p2277
(dp2278
g8
(lp2279
sg10
g2275
sg11
S'PHYS-6C-01-LEC-Intro Phys III-62368 and PHYS-6C-01A-DIS-Intro Phys III-62369'
p2280
sg13
S'cgmorris@ucsc.edu'
p2281
sg15
S'20065'
p2282
sg17
g2277
sg18
S'Chase Morris'
p2283
sg20
S'1483028'
p2284
sg22
g2283
sg23
(lp2285
sssS'Wong'
p2286
(dp2287
S'Amy'
p2288
(dp2289
g8
(lp2290
sg10
g2286
sg11
S'PHYS-6C-01-LEC-Intro Phys III-62368'
p2291
sg13
S'amlwong@ucsc.edu'
p2292
sg15
S'11434'
p2293
sg17
g2288
sg18
S'Amy Wong'
p2294
sg20
S'1410966'
p2295
sg22
g2294
sg23
(lp2296
ssS'Trucilla'
p2297
(dp2298
g8
(lp2299
sg10
S'Wong'
p2300
sg11
S'PHYS-6C-01-LEC-Intro Phys III-62368'
p2301
sg13
S'twong29@ucsc.edu'
p2302
sg15
S'19853'
p2303
sg17
g2297
sg18
S'Trucilla Wong'
p2304
sg20
S'1463682'
p2305
sg22
g2304
sg23
(lp2306
ssS'Ashley'
p2307
(dp2308
g8
(lp2309
sg10
S'Wong'
p2310
sg11
S'PHYS-6C-01-LEC-Intro Phys III-62368'
p2311
sg13
S'astwong@ucsc.edu'
p2312
sg15
S'19621'
p2313
sg17
g2307
sg18
S'Ashley Wong'
p2314
sg20
S'1435195'
p2315
sg22
g2314
sg23
(lp2316
sssS'Sahasrabudhe'
p2317
(dp2318
S'Manjiri'
p2319
(dp2320
g8
(lp2321
sg10
g2317
sg11
S'PHYS-6C-01-LEC-Intro Phys III-62368 and PHYS-6C-01A-DIS-Intro Phys III-62369'
p2322
sg13
S'msahasra@ucsc.edu'
p2323
sg15
S'9395'
p2324
sg17
g2319
sg18
S'Manjiri Sahasrabudhe'
p2325
sg20
S'1477838'
p2326
sg22
g2325
sg23
(lp2327
sssS'Fajardo'
p2328
(dp2329
S'Micaella'
p2330
(dp2331
g8
(lp2332
S'Paola Fajardo'
p2333
asg10
g2328
sg11
S'PHYS-6C-01-LEC-Intro Phys III-62368 and PHYS-6C-01A-DIS-Intro Phys III-62369'
p2334
sg13
S'miafajar@ucsc.edu'
p2335
sg15
S'29388'
p2336
sg17
g2330
sg18
S'Micaella Paola Fajardo'
p2337
sg20
S'1592993'
p2338
sg22
g2337
sg23
(lp2339
sssS'Martin'
p2340
(dp2341
S'Julia'
p2342
(dp2343
g8
(lp2344
sg10
g2340
sg11
S'PHYS-6C-01-LEC-Intro Phys III-62368'
p2345
sg13
S'jugmarti@ucsc.edu'
p2346
sg15
S'12182'
p2347
sg17
g2342
sg18
S'Julia Martin'
p2348
sg20
S'1494687'
p2349
sg22
g2348
sg23
(lp2350
sssS'Manguray'
p2351
(dp2352
S'Franz'
p2353
(dp2354
g8
(lp2355
sg10
g2351
sg11
S'PHYS-6C-01-LEC-Intro Phys III-62368 and PHYS-6C-01A-DIS-Intro Phys III-62369'
p2356
sg13
S'fmangura@ucsc.edu'
p2357
sg15
S'9469'
p2358
sg17
g2353
sg18
S'Franz Manguray'
p2359
sg20
S'1486196'
p2360
sg22
g2359
sg23
(lp2361
sssS'Iwuagwu'
p2362
(dp2363
S'Justin'
p2364
(dp2365
g8
(lp2366
sg10
g2362
sg11
S'PHYS-6C-01-LEC-Intro Phys III-62368 and PHYS-6C-01A-DIS-Intro Phys III-62369'
p2367
sg13
S'jeiwuagw@ucsc.edu'
p2368
sg15
S'11846'
p2369
sg17
g2364
sg18
S'Justin Iwuagwu'
p2370
sg20
S'1460923'
p2371
sg22
g2370
sg23
(lp2372
sssS'Lee'
p2373
(dp2374
S'Sophie'
p2375
(dp2376
g8
(lp2377
sg10
S'Lee'
p2378
sg11
S'PHYS-6C-01-LEC-Intro Phys III-62368 and PHYS-6C-01A-DIS-Intro Phys III-62369'
p2379
sg13
S'somilee@ucsc.edu'
p2380
sg15
S'8778'
p2381
sg17
g2375
sg18
S'Sophie Lee'
p2382
sg20
S'1407069'
p2383
sg22
g2382
sg23
(lp2384
ssS'Rebecca'
p2385
(dp2386
g8
(lp2387
sg10
S'Lee'
p2388
sg11
S'PHYS-6C-01-LEC-Intro Phys III-62368 and PHYS-6C-01A-DIS-Intro Phys III-62369'
p2389
sg13
S'reclee@ucsc.edu'
p2390
sg15
S'9480'
p2391
sg17
g2385
sg18
S'Rebecca Lee'
p2392
sg20
S'1486940'
p2393
sg22
g2392
sg23
(lp2394
ssS'Hao'
p2395
(dp2396
g8
(lp2397
S'Ping Lee'
p2398
asg10
g2373
sg11
S'PHYS-6C-01-LEC-Intro Phys III-62368'
p2399
sg13
S'hlee105@ucsc.edu'
p2400
sg15
S'17352'
p2401
sg17
g2395
sg18
S'Hao Ping Lee'
p2402
sg20
S'1481812'
p2403
sg22
g2402
sg23
(lp2404
sssS'Takeuchi'
p2405
(dp2406
S'Rick'
p2407
(dp2408
g8
(lp2409
sg10
g2405
sg11
S'PHYS-6C-01-LEC-Intro Phys III-62368'
p2410
sg13
S'mrtakeuc@ucsc.edu'
p2411
sg15
S'4599'
p2412
sg17
g2407
sg18
S'Rick Takeuchi'
p2413
sg20
S'1475770'
p2414
sg22
g2413
sg23
(lp2415
sssS'Wang'
p2416
(dp2417
S'Kalen'
p2418
(dp2419
g8
(lp2420
sg10
g2416
sg11
S'PHYS-6C-01-LEC-Intro Phys III-62368 and PHYS-6C-01B-DIS-Intro Phys III-62370'
p2421
sg13
S'kaswang@ucsc.edu'
p2422
sg15
S'19552'
p2423
sg17
g2418
sg18
S'Kalen Wang'
p2424
sg20
S'1428673'
p2425
sg22
g2424
sg23
(lp2426
ssS'Tingying'
p2427
(dp2428
g8
(lp2429
sg10
S'Wang'
p2430
sg11
S'PHYS-6C-01-LEC-Intro Phys III-62368 and PHYS-6C-01A-DIS-Intro Phys III-62369'
p2431
sg13
S'twang84@ucsc.edu'
p2432
sg15
S'29063'
p2433
sg17
g2427
sg18
S'Tingying Wang'
p2434
sg20
S'1561061'
p2435
sg22
g2434
sg23
(lp2436
sssS'Aparicio'
p2437
(dp2438
S'Danielle'
p2439
(dp2440
g8
(lp2441
sg10
g2437
sg11
S'PHYS-6C-01-LEC-Intro Phys III-62368'
p2442
sg13
S'dmaparic@ucsc.edu'
p2443
sg15
S'11970'
p2444
sg17
g2439
sg18
S'Danielle Aparicio'
p2445
sg20
S'1470917'
p2446
sg22
g2445
sg23
(lp2447
sssS'Fujimoto'
p2448
(dp2449
S'Trevor'
p2450
(dp2451
g8
(lp2452
sg10
g2448
sg11
S'PHYS-6C-01-LEC-Intro Phys III-62368 and PHYS-6C-01A-DIS-Intro Phys III-62369'
p2453
sg13
S'tsfujimo@ucsc.edu'
p2454
sg15
S'14696'
p2455
sg17
g2450
sg18
S'Trevor Fujimoto'
p2456
sg20
S'1477964'
p2457
sg22
g2456
sg23
(lp2458
sssS'Masarapu'
p2459
(dp2460
S'Akhila'
p2461
(dp2462
g8
(lp2463
sg10
g2459
sg11
S'PHYS-6C-01-LEC-Intro Phys III-62368 and PHYS-6C-01A-DIS-Intro Phys III-62369'
p2464
sg13
S'amasarap@ucsc.edu'
p2465
sg15
S'12126'
p2466
sg17
g2461
sg18
S'Akhila Masarapu'
p2467
sg20
S'1487929'
p2468
sg22
g2467
sg23
(lp2469
sssS'Whitcomb'
p2470
(dp2471
S'Finley'
p2472
(dp2473
g8
(lp2474
sg10
g2470
sg11
S'PHYS-6C-01-LEC-Intro Phys III-62368 and PHYS-6C-01A-DIS-Intro Phys III-62369'
p2475
sg13
S'fwhitcom@ucsc.edu'
p2476
sg15
S'20052'
p2477
sg17
g2472
sg18
S'Finley Whitcomb'
p2478
sg20
S'1481295'
p2479
sg22
g2478
sg23
(lp2480
sssS'Tabor'
p2481
(dp2482
S'Mireya'
p2483
(dp2484
g8
(lp2485
sg10
g2481
sg11
S'PHYS-6C-01-LEC-Intro Phys III-62368 and PHYS-6C-01A-DIS-Intro Phys III-62369'
p2486
sg13
S'mtabor@ucsc.edu'
p2487
sg15
S'27628'
p2488
sg17
g2483
sg18
S'Mireya Tabor'
p2489
sg20
S'1483255'
p2490
sg22
g2489
sg23
(lp2491
sssS'Klinski'
p2492
(dp2493
S'Harrison'
p2494
(dp2495
g8
(lp2496
sg10
g2492
sg11
S'PHYS-6C-01-LEC-Intro Phys III-62368 and PHYS-6C-01A-DIS-Intro Phys III-62369'
p2497
sg13
S'hklinski@ucsc.edu'
p2498
sg15
S'3968'
p2499
sg17
g2494
sg18
S'Harrison Klinski'
p2500
sg20
S'1451703'
p2501
sg22
g2500
sg23
(lp2502
sssS'Zeng'
p2503
(dp2504
S'Sandy'
p2505
(dp2506
g8
(lp2507
sg10
g2503
sg11
S'PHYS-6C-01-LEC-Intro Phys III-62368 and PHYS-6C-01B-DIS-Intro Phys III-62370'
p2508
sg13
S'sazeng@ucsc.edu'
p2509
sg15
S'17252'
p2510
sg17
g2505
sg18
S'Sandy Zeng'
p2511
sg20
S'1471982'
p2512
sg22
g2511
sg23
(lp2513
sssS'Brennan'
p2514
(dp2515
S'Annette'
p2516
(dp2517
g8
(lp2518
sg10
g2514
sg11
S'PHYS-6C-01-LEC-Intro Phys III-62368'
p2519
sg13
S'anebrenn@ucsc.edu'
p2520
sg15
S'19518'
p2521
sg17
g2516
sg18
S'Annette Brennan'
p2522
sg20
S'1425201'
p2523
sg22
g2522
sg23
(lp2524
sssS'Crespo'
p2525
(dp2526
S'T.'
p2527
(dp2528
g8
(lp2529
S'Vendela Crespo'
p2530
asg10
g2525
sg11
S'PHYS-6C-01-LEC-Intro Phys III-62368 and PHYS-6C-01A-DIS-Intro Phys III-62369'
p2531
sg13
S'tcrespo@ucsc.edu'
p2532
sg15
S'9005'
p2533
sg17
g2527
sg18
S'T. Vendela Crespo'
p2534
sg20
S'1431189'
p2535
sg22
g2534
sg23
(lp2536
sssS'Varela'
p2537
(dp2538
S'Manuel'
p2539
(dp2540
g8
(lp2541
sg10
g2537
sg11
S'PHYS-6C-01-LEC-Intro Phys III-62368'
p2542
sg13
S'mavarela@ucsc.edu'
p2543
sg15
S'14512'
p2544
sg17
g2539
sg18
S'Manuel Varela'
p2545
sg20
S'1460626'
p2546
sg22
g2545
sg23
(lp2547
sssS'Chen'
p2548
(dp2549
S'Luke'
p2550
(dp2551
g8
(lp2552
sg10
g2548
sg11
S'PHYS-6C-01-LEC-Intro Phys III-62368'
p2553
sg13
S'lchen51@ucsc.edu'
p2554
sg15
S'2817'
p2555
sg17
g2550
sg18
S'Luke Chen'
p2556
sg20
S'1405582'
p2557
sg22
g2556
sg23
(lp2558
sssS'Thottempudi'
p2559
(dp2560
S'Santan'
p2561
(dp2562
g8
(lp2563
sg10
g2559
sg11
S'PHYS-6C-01-LEC-Intro Phys III-62368 and PHYS-6C-01A-DIS-Intro Phys III-62369'
p2564
sg13
S'sthottem@ucsc.edu'
p2565
sg15
S'11865'
p2566
sg17
g2561
sg18
S'Santan Thottempudi'
p2567
sg20
S'1462081'
p2568
sg22
g2567
sg23
(lp2569
sssS'Ngai'
p2570
(dp2571
S'Steven'
p2572
(dp2573
g8
(lp2574
sg10
g2570
sg11
S'PHYS-6C-01-LEC-Intro Phys III-62368'
p2575
sg13
S'sjngai@ucsc.edu'
p2576
sg15
S'3215'
p2577
sg17
g2572
sg18
S'Steven Ngai'
p2578
sg20
S'1419487'
p2579
sg22
g2578
sg23
(lp2580
ssssS'fieldnames'
p2581
(lp2582
g18
ag15
ag20
ag13
ag11
asS'ID'
p2583
(dp2584
S''
(g684
g686
tp2585
sg56
(g47
g49
tp2586
sg1398
(g1389
g1391
tp2587
sg1131
(g1122
g1124
tp2588
sg2393
(g2388
g2385
tp2589
sg1680
(g1671
g1673
tp2590
sg2069
(g2060
g2062
tp2591
sg2557
(g2548
g2550
tp2592
sg2425
(g2416
g2418
tp2593
sg122
(g113
g115
tp2594
sg1925
(g1916
g1918
tp2595
sg1892
(g1883
g1885
tp2596
sg2168
(g2159
g2161
tp2597
sg540
(g531
g533
tp2598
sg879
(g870
g872
tp2599
sg1702
(g1693
g1695
tp2600
sg1724
(g1715
g1717
tp2601
sg318
(g309
g311
tp2602
sg2036
(g2027
g2029
tp2603
sg824
(g815
g817
tp2604
sg397
(g387
g389
tp2605
sg791
(g782
g784
tp2606
sg2047
(g2038
g2040
tp2607
sg846
(g837
g839
tp2608
sg1592
(g1583
g1585
tp2609
sg1020
(g1011
g1013
tp2610
sg1757
(g1748
g1750
tp2611
sg650
(g641
g643
tp2612
sg253
(g244
g246
tp2613
sg2414
(g2405
g2407
tp2614
sg2295
(g2286
g2288
tp2615
sg1935
(g1930
g1927
tp2616
sg628
(g619
g621
tp2617
sg1275
(g1266
g1268
tp2618
sg231
(g222
g224
tp2619
sg1968
(g1959
g1961
tp2620
sg595
(g586
g588
tp2621
sg1746
(g1737
g1739
tp2622
sg155
(g146
g148
tp2623
sg1031
(g1022
g1024
tp2624
sg2349
(g2340
g2342
tp2625
sg485
(g476
g478
tp2626
sg1881
(g1872
g1874
tp2627
sg496
(g487
g489
tp2628
sg2135
(g2126
g2128
tp2629
sg2523
(g2514
g2516
tp2630
sg2305
(g2300
g2297
tp2631
sg2403
(g2373
g2395
tp2632
sg2457
(g2448
g2450
tp2633
sg34
(g25
g27
tp2634
sg1735
(g1726
g1728
tp2635
sg220
(g211
g213
tp2636
sg736
(g727
g729
tp2637
sg1658
(g1649
g1651
tp2638
sg452
(g443
g445
tp2639
sg780
(g771
g773
tp2640
sg868
(g859
g861
tp2641
sg209
(g200
g202
tp2642
sg408
(g399
g401
tp2643
sg242
(g233
g235
tp2644
sg1537
(g1528
g1530
tp2645
sg551
(g542
g544
tp2646
sg111
(g102
g104
tp2647
sg965
(g956
g958
tp2648
sg2446
(g2437
g2439
tp2649
sg1669
(g1660
g1662
tp2650
sg2383
(g2378
g2375
tp2651
sg1387
(g1378
g1380
tp2652
sg2091
(g2082
g2084
tp2653
sg2435
(g2430
g2427
tp2654
sg1559
(g1550
g1552
tp2655
sg1420
(g1411
g1413
tp2656
sg177
(g168
g170
tp2657
sg1442
(g1433
g1435
tp2658
sg682
(g673
g675
tp2659
sg1515
(g1510
g1507
tp2660
sg943
(g934
g936
tp2661
sg703
(g694
g696
tp2662
sg802
(g793
g795
tp2663
sg2273
(g2264
g2266
tp2664
sg1354
(g1345
g1347
tp2665
sg1286
(g1277
g1279
tp2666
sg507
(g498
g500
tp2667
sg1230
(g1221
g1223
tp2668
sg1064
(g1055
g1057
tp2669
sg639
(g630
g632
tp2670
sg100
(g91
g93
tp2671
sg2468
(g2459
g2461
tp2672
sg1086
(g1077
g1079
tp2673
sg2190
(g2181
g2183
tp2674
sg1713
(g1704
g1706
tp2675
sg606
(g597
g599
tp2676
sg1264
(g1255
g1257
tp2677
sg1431
(g1422
g1424
tp2678
sg1053
(g1044
g1046
tp2679
sg1813
(g1804
g1806
tp2680
sg2146
(g2137
g2139
tp2681
sg2002
(g1993
g1995
tp2682
sg1870
(g1860
g1862
tp2683
sg45
(g36
g38
tp2684
sg2546
(g2537
g2539
tp2685
sg463
(g454
g456
tp2686
sg1570
(g1561
g1563
tp2687
sg1175
(g1166
g1168
tp2688
sg911
(g902
g904
tp2689
sg671
(g666
g663
tp2690
sg1647
(g1638
g1640
tp2691
sg2326
(g2317
g2319
tp2692
sg1343
(g1332
g1334
tp2693
sg2102
(g2093
g2095
tp2694
sg1505
(g1500
g1497
tp2695
sg1980
(g1970
g1972
tp2696
sg2262
(g2243
g2255
tp2697
sg351
(g342
g344
tp2698
sg374
(g364
g366
tp2699
sg2211
(g2206
g2203
tp2700
sg264
(g255
g257
tp2701
sg2201
(g2192
g2194
tp2702
sg661
(g652
g654
tp2703
sg835
(g826
g828
tp2704
sg2253
(g2248
g2245
tp2705
sg1625
(g1616
g1618
tp2706
sg1409
(g1400
g1402
tp2707
sg2241
(g2236
g2233
tp2708
sg1009
(g1000
g1002
tp2709
sg1075
(g1066
g1068
tp2710
sg298
(g293
g290
tp2711
sg1142
(g1133
g1135
tp2712
sg2579
(g2570
g2572
tp2713
sg2231
(g2226
g2223
tp2714
sg1526
(g1517
g1519
tp2715
sg419
(g410
g412
tp2716
sg1376
(g1367
g1369
tp2717
sg1330
(g1321
g1323
tp2718
sg1824
(g1815
g1817
tp2719
sg747
(g738
g740
tp2720
sg362
(g353
g355
tp2721
sg562
(g553
g555
tp2722
sg922
(g913
g915
tp2723
sg329
(g320
g322
tp2724
sg1475
(g1470
g1466
tp2725
sg2490
(g2481
g2483
tp2726
sg529
(g509
g522
tp2727
sg1847
(g1838
g1840
tp2728
sg1297
(g1288
g1290
tp2729
sg2512
(g2503
g2505
tp2730
sg2157
(g2148
g2150
tp2731
sg573
(g564
g566
tp2732
sg133
(g124
g126
tp2733
sg67
(g58
g60
tp2734
sg2568
(g2559
g2561
tp2735
sg1581
(g1572
g1574
tp2736
sg2025
(g2016
g2018
tp2737
sg857
(g848
g850
tp2738
sg275
(g266
g268
tp2739
sg2080
(g2071
g2073
tp2740
sg714
(g705
g707
tp2741
sg198
(g189
g191
tp2742
sg307
(g288
g300
tp2743
sg1991
(g1982
g1984
tp2744
sg2338
(g2328
g2330
tp2745
sg1903
(g1894
g1896
tp2746
sg889
(g884
g881
tp2747
sg1042
(g1033
g1035
tp2748
sg1120
(g1111
g1113
tp2749
sg340
(g331
g333
tp2750
sg2014
(g2004
g2006
tp2751
sg89
(g80
g82
tp2752
sg1614
(g1605
g1607
tp2753
sg813
(g804
g806
tp2754
sg1109
(g1100
g1102
tp2755
sg1308
(g1299
g1301
tp2756
sg1164
(g1155
g1157
tp2757
sg2371
(g2362
g2364
tp2758
sg1319
(g1310
g1312
tp2759
sg385
(g376
g378
tp2760
sg2284
(g2275
g2277
tp2761
sg1153
(g1144
g1146
tp2762
sg758
(g749
g751
tp2763
sg1453
(g1444
g1446
tp2764
sg2113
(g2104
g2106
tp2765
sg1858
(g1849
g1851
tp2766
sg1219
(g1210
g1212
tp2767
sg2360
(g2351
g2353
tp2768
sg1836
(g1826
g1828
tp2769
sg1098
(g1088
g1090
tp2770
sg617
(g608
g610
tp2771
sg1495
(g1490
g1487
tp2772
sg932
(g927
g924
tp2773
sg520
(g515
g511
tp2774
sg1691
(g1682
g1684
tp2775
sg187
(g182
g179
tp2776
sg2535
(g2525
g2527
tp2777
sg2501
(g2492
g2494
tp2778
sg998
(g989
g991
tp2779
sg78
(g69
g71
tp2780
sg1957
(g1948
g1950
tp2781
sg474
(g465
g467
tp2782
sg1790
(g1781
g1783
tp2783
sg430
(g421
g423
tp2784
sg2315
(g2310
g2307
tp2785
sg2124
(g2115
g2117
tp2786
sg2479
(g2470
g2472
tp2787
sg725
(g716
g718
tp2788
sg1914
(g1905
g1907
tp2789
sg987
(g978
g980
tp2790
sg954
(g945
g947
tp2791
sg1603
(g1594
g1596
tp2792
sg1636
(g1627
g1629
tp2793
sg144
(g135
g137
tp2794
sg1253
(g1243
g1245
tp2795
sg2058
(g2049
g2051
tp2796
sg166
(g157
g159
tp2797
sg1197
(g1188
g1190
tp2798
sg584
(g575
g577
tp2799
sg1464
(g1455
g1457
tp2800
sg441
(g432
g434
tp2801
sg21
(g4
g6
tp2802
sg1186
(g1177
g1179
tp2803
sg900
(g891
g893
tp2804
sg1768
(g1759
g1761
tp2805
sg1548
(g1539
g1541
tp2806
sg769
(g760
g762
tp2807
sg1779
(g1770
g1772
tp2808
sg2179
(g2174
g2170
tp2809
sg1485
(g1480
g1477
tp2810
sg1365
(g1356
g1358
tp2811
sg286
(g277
g279
tp2812
sg1946
(g1937
g1939
tp2813
sg1802
(g1792
g1794
tp2814
sg1208
(g1199
g1201
tp2815
sg1241
(g1232
g1234
tp2816
sg2221
(g2216
g2213
tp2817
sg976
(g967
g969
tp2818
ssS'aliases'
p2819
(dp2820
(g1831
g1828
tp2821
(g1826
g1828
tp2822
s(g1975
g1972
tp2823
(g1970
g1972
tp2824
s(g1248
g1245
tp2825
(g1243
g1245
tp2826
s(g2333
g2330
tp2827
(g2328
g2330
tp2828
s(g1797
g1794
tp2829
(g1792
g1794
tp2830
s(g392
g389
tp2831
(g387
g389
tp2832
s(g1865
g1862
tp2833
(g1860
g1862
tp2834
s(g1337
g1334
tp2835
(g1332
g1334
tp2836
s(g369
g366
tp2837
(g364
g366
tp2838
s(g1338
g1334
tp2839
(g1332
g1334
tp2840
s(g2398
g2395
tp2841
(g2373
g2395
tp2842
s(g2009
g2006
tp2843
(g2004
g2006
tp2844
s(g2173
g2170
tp2845
(g2174
g2170
tp2846
s(g2530
g2527
tp2847
(g2525
g2527
tp2848
s(g514
g511
tp2849
(g515
g511
tp2850
s(g1093
g1090
tp2851
(g1088
g1090
tp2852
s(g1469
g1466
tp2853
(g1470
g1466
tp2854
ssS'name'
p2855
S'Phys6C'
p2856
sS'newcorrections'
p2857
(dp2858
sS'studentlist'
p2859
(lp2860
g545
ag1940
ag2129
ag258
ag1795
ag127
ag1224
ag1313
ag2440
ag1036
ag774
ag633
ag457
ag600
ag1392
ag937
ag446
ag1674
ag1553
ag1807
ag589
ag424
ag2517
ag1246
ag203
ag1370
ag1025
ag116
ag413
ag840
ag1773
ag2041
ag192
ag567
ag763
ag2162
ag2171
ag2551
ag1575
ag1586
ag1608
ag1003
ag2052
ag873
ag882
ag1381
ag1663
ag2528
ag1014
ag1973
ag1335
ag1447
ag862
ag1348
ag312
ag1436
ag1158
ag345
ag72
ag402
ag676
ag1564
ag1852
ag2331
ag2184
ag50
ag435
ag1425
ag301
ag291
ag556
ag490
ag611
ag2451
ag1619
ag1058
ag367
ag2267
ag741
ag61
ag1414
ag948
ag1114
ag730
ag1919
ag1928
ag28
ag105
ag1302
ag851
ag578
ag655
ag664
ag1359
ag2365
ag1520
ag523
ag512
ag356
ag894
ag2063
ag2107
ag2495
ag138
ag959
ag2007
ag1762
ag2074
ag2396
ag2386
ag2376
ag1685
ag2151
ag1729
ag1996
ag1818
ag1829
ag1863
ag916
ag925
ag1213
ag1324
ag2354
ag501
ag2343
ag1696
ag697
ag2462
ag622
ag981
ag1103
ag829
ag247
ag644
ag1147
ag796
ag1841
ag280
ag2278
ag2573
ag323
ag1458
ag1467
ag1508
ag1478
ag1498
ag1488
ag1280
ag2118
ag334
ag1180
ag269
ag1962
ag1125
ag2096
ag534
ag1542
ag970
ag1531
ag1740
ag171
ag180
ag2019
ag905
ag1784
ag2256
ag2246
ag390
ag1718
ag785
ag2140
ag687
ag225
ag1652
ag1886
ag1875
ag468
ag2320
ag818
ag379
ag752
ag94
ag1091
ag1136
ag1403
ag83
ag1908
ag1191
ag1630
ag1897
ag1258
ag236
ag992
ag1985
ag2484
ag2408
ag708
ag479
ag1080
ag7
ag2562
ag2195
ag2224
ag2204
ag2234
ag2214
ag807
ag1269
ag2540
ag39
ag1069
ag1707
ag1597
ag2419
ag2428
ag1291
ag2473
ag160
ag1641
ag1951
ag1169
ag2289
ag2308
ag2298
ag2030
ag1751
ag1047
ag1235
ag1202
ag2085
ag719
ag2506
ag214
ag149
asS'nameformat'
p2861
S'onecolumn'
p2862
sS'SubstringOccurences'
p2863
NsS'corrections'
p2864
(dp2865
sS'idcolumn'
p2866
I2
s.