(dp1
S'roster'
p2
(dp3
S'Jose'
p4
(dp5
S'Remi'
p6
(dp7
S'Last Name Alias'
p8
(lp9
S'De Jose'
p10
asS'Root Account'
p11
S'deanza.instructure.com'
p12
sS'Last Name'
p13
g4
sS'Section'
p14
S'PHYS 050.62'
p15
sS'SIS Login ID'
p16
S'20215867'
p17
sS'ID'
p18
S'12416'
p19
sS'First Name'
p20
g6
sS'Student'
p21
S'Remi De Jose'
p22
sS'SIS User ID'
p23
S'20215867'
p24
sS'Full Name'
p25
g22
sS'First Name Alias'
p26
(lp27
sssS'Chaffee'
p28
(dp29
S'Tyler'
p30
(dp31
g8
(lp32
sg11
S'deanza.instructure.com'
p33
sg13
g28
sg14
S'PHYS 050.62'
p34
sg16
S'20325399'
p35
sg18
S'19274'
p36
sg20
g30
sg21
S'Tyler Chaffee'
p37
sg23
S'20325399'
p38
sg25
g37
sg26
(lp39
sssS'Lim'
p40
(dp41
S'Hyeseul'
p42
(dp43
g8
(lp44
sg11
S'deanza.instructure.com'
p45
sg13
g40
sg14
S'PHYS 050.62'
p46
sg16
S'20274048'
p47
sg18
S'40343'
p48
sg20
g42
sg21
S'Hyeseul Lim'
p49
sg23
S'20274048'
p50
sg25
g49
sg26
(lp51
sssS'Santella'
p52
(dp53
S'Andi'
p54
(dp55
g8
(lp56
S'Mari Santella'
p57
asg11
S'deanza.instructure.com'
p58
sg13
g52
sg14
S'PHYS 050.62'
p59
sg16
S'20324149'
p60
sg18
S'14280'
p61
sg20
g54
sg21
S'Andi Mari Santella'
p62
sg23
S'20324149'
p63
sg25
g62
sg26
(lp64
sssS'Li'
p65
(dp66
S'Jilly'
p67
(dp68
g8
(lp69
sg11
S'deanza.instructure.com'
p70
sg13
g65
sg14
S'PHYS 050.62'
p71
sg16
S'20317265'
p72
sg18
S'37881'
p73
sg20
g67
sg21
S'Jilly Li'
p74
sg23
S'20317265'
p75
sg25
g74
sg26
(lp76
sssS'Arquette'
p77
(dp78
S'Marlo'
p79
(dp80
g8
(lp81
sg11
S'deanza.instructure.com'
p82
sg13
g77
sg14
S'PHYS 050.62'
p83
sg16
S'20333345'
p84
sg18
S'27645'
p85
sg20
g79
sg21
S'Marlo Arquette'
p86
sg23
S'20333345'
p87
sg25
g86
sg26
(lp88
sssS'Goodman'
p89
(dp90
S'Andrew'
p91
(dp92
g8
(lp93
sg11
S'deanza.instructure.com'
p94
sg13
g89
sg14
S'PHYS 050.62'
p95
sg16
S'20251905'
p96
sg18
S'6903'
p97
sg20
g91
sg21
S'Andrew Goodman'
p98
sg23
S'20251905'
p99
sg25
g98
sg26
(lp100
sssS'Yan'
p101
(dp102
S'Jiaqing'
p103
(dp104
g8
(lp105
sg11
S'deanza.instructure.com'
p106
sg13
g101
sg14
S'PHYS 050.62'
p107
sg16
S'20331532'
p108
sg18
S'31931'
p109
sg20
g103
sg21
S'Jiaqing Yan'
p110
sg23
S'20331532'
p111
sg25
g110
sg26
(lp112
sssS'Cheng'
p113
(dp114
S'Hui'
p115
(dp116
g8
(lp117
S'Chan Cheng'
p118
asg11
S'deanza.instructure.com'
p119
sg13
g113
sg14
S'PHYS 050.62'
p120
sg16
S'20386166'
p121
sg18
S'78153'
p122
sg20
g115
sg21
S'Hui Chan Cheng'
p123
sg23
S'20386166'
p124
sg25
g123
sg26
(lp125
sssS'Avci'
p126
(dp127
S'Efecan'
p128
(dp129
g8
(lp130
sg11
S'deanza.instructure.com'
p131
sg13
g126
sg14
S'PHYS 050.62'
p132
sg16
S'20340428'
p133
sg18
S'46599'
p134
sg20
g128
sg21
S'Efecan Avci'
p135
sg23
S'20340428'
p136
sg25
g135
sg26
(lp137
sssS'Chiu'
p138
(dp139
S'Sanne'
p140
(dp141
g8
(lp142
sg11
S'deanza.instructure.com'
p143
sg13
g138
sg14
S'PHYS 050.62'
p144
sg16
S'11370588'
p145
sg18
S'22835'
p146
sg20
g140
sg21
S'Sanne Chiu'
p147
sg23
S'11370588'
p148
sg25
g147
sg26
(lp149
sssS'Dehart'
p150
(dp151
S'Christopher'
p152
(dp153
g8
(lp154
sg11
S'deanza.instructure.com'
p155
sg13
g150
sg14
S'PHYS 050.62'
p156
sg16
S'11293920'
p157
sg18
S'10706'
p158
sg20
g152
sg21
S'Christopher Dehart'
p159
sg23
S'11293920'
p160
sg25
g159
sg26
(lp161
sssS'Hernandez'
p162
(dp163
S'Rosalee'
p164
(dp165
g8
(lp166
sg11
S'deanza.instructure.com'
p167
sg13
g162
sg14
S'PHYS 050.62'
p168
sg16
S'20198948'
p169
sg18
S'4413'
p170
sg20
g164
sg21
S'Rosalee Hernandez'
p171
sg23
S'20198948'
p172
sg25
g171
sg26
(lp173
sssS'Myat'
p174
(dp175
S'.'
(dp176
g8
(lp177
S'Htet Myat'
p178
asg11
S'deanza.instructure.com'
p179
sg13
g174
sg14
S'PHYS 050.62'
p180
sg16
S'20330462'
p181
sg18
S'25752'
p182
sg20
S'.'
sg21
S'. Htet Myat'
p183
sg23
S'20330462'
p184
sg25
g183
sg26
(lp185
sssS'Ayala'
p186
(dp187
S'Dustin'
p188
(dp189
g8
(lp190
sg11
S'deanza.instructure.com'
p191
sg13
g186
sg14
S'PHYS 050.62'
p192
sg16
S'20154923'
p193
sg18
S'25944'
p194
sg20
g188
sg21
S'Dustin Ayala'
p195
sg23
S'20154923'
p196
sg25
g195
sg26
(lp197
sssS'Nguyen'
p198
(dp199
S'Thu'
p200
(dp201
g8
(lp202
S'Hong Nguyen'
p203
asg11
S'deanza.instructure.com'
p204
sg13
S'Nguyen'
p205
sg14
S'PHYS 050.62'
p206
sg16
S'20306326'
p207
sg18
S'42913'
p208
sg20
g200
sg21
S'Thu Hong Nguyen'
p209
sg23
S'20306326'
p210
sg25
g209
sg26
(lp211
ssS'Le'
p212
(dp213
g8
(lp214
S'Minh Long Nguyen'
p215
aS'Long Nguyen'
p216
asg11
S'deanza.instructure.com'
p217
sg13
g198
sg14
S'PHYS 050.62'
p218
sg16
S'20295486'
p219
sg18
S'10562'
p220
sg20
g212
sg21
S'Le Minh Long Nguyen'
p221
sg23
S'20295486'
p222
sg25
g221
sg26
(lp223
ssS'Peter'
p224
(dp225
g8
(lp226
sg11
S'deanza.instructure.com'
p227
sg13
S'Nguyen'
p228
sg14
S'PHYS 050.62'
p229
sg16
S'20324440'
p230
sg18
S'14759'
p231
sg20
g224
sg21
S'Peter Nguyen'
p232
sg23
S'20324440'
p233
sg25
g232
sg26
(lp234
sssS'Mac'
p235
(dp236
S'Minh'
p237
(dp238
g8
(lp239
sg11
S'deanza.instructure.com'
p240
sg13
g235
sg14
S'PHYS 050.62'
p241
sg16
S'20333701'
p242
sg18
S'28642'
p243
sg20
g237
sg21
S'Minh Mac'
p244
sg23
S'20333701'
p245
sg25
g244
sg26
(lp246
sssS'Anisimov'
p247
(dp248
S'Yuriy'
p249
(dp250
g8
(lp251
sg11
S'deanza.instructure.com'
p252
sg13
g247
sg14
S'PHYS 050.62'
p253
sg16
S'20225651'
p254
sg18
S'28578'
p255
sg20
g249
sg21
S'Yuriy Anisimov'
p256
sg23
S'20225651'
p257
sg25
g256
sg26
(lp258
sssS'Truong'
p259
(dp260
S'Minh'
p261
(dp262
g8
(lp263
sg11
S'deanza.instructure.com'
p264
sg13
g259
sg14
S'PHYS 050.62'
p265
sg16
S'20322435'
p266
sg18
S'44088'
p267
sg20
g261
sg21
S'Minh Truong'
p268
sg23
S'20322435'
p269
sg25
g268
sg26
(lp270
sssS'Zokhidova'
p271
(dp272
S'Leyla'
p273
(dp274
g8
(lp275
sg11
S'deanza.instructure.com'
p276
sg13
g271
sg14
S'PHYS 050.62'
p277
sg16
S'20353425'
p278
sg18
S'53045'
p279
sg20
g273
sg21
S'Leyla Zokhidova'
p280
sg23
S'20353425'
p281
sg25
g280
sg26
(lp282
sssS'Aktas'
p283
(dp284
S'Hediye'
p285
(dp286
g8
(lp287
sg11
S'deanza.instructure.com'
p288
sg13
g283
sg14
S'PHYS 050.62'
p289
sg16
S'20354586'
p290
sg18
S'59777'
p291
sg20
g285
sg21
S'Hediye Aktas'
p292
sg23
S'20354586'
p293
sg25
g292
sg26
(lp294
sssS'Tung'
p295
(dp296
S'.'
(dp297
g8
(lp298
S'Wong Ying Tung'
p299
aS'Ying Tung'
p300
asg11
S'deanza.instructure.com'
p301
sg13
g295
sg14
S'PHYS 050.62'
p302
sg16
S'20298214'
p303
sg18
S'2364'
p304
sg20
S'.'
sg21
S'. Wong Ying Tung'
p305
sg23
S'20298214'
p306
sg25
g305
sg26
(lp307
sssS'Giancana'
p308
(dp309
S'Ida'
p310
(dp311
g8
(lp312
S'Ayu Gisca Giancana'
p313
aS'Gisca Giancana'
p314
asg11
S'deanza.instructure.com'
p315
sg13
g308
sg14
S'PHYS 050.62'
p316
sg16
S'20370646'
p317
sg18
S'67360'
p318
sg20
g310
sg21
S'Ida Ayu Gisca Giancana'
p319
sg23
S'20370646'
p320
sg25
g319
sg26
(lp321
sssS'Pietrasik'
p322
(dp323
S'Connor'
p324
(dp325
g8
(lp326
sg11
S'deanza.instructure.com'
p327
sg13
g322
sg14
S'PHYS 050.62'
p328
sg16
S'20361874'
p329
sg18
S'60169'
p330
sg20
g324
sg21
S'Connor Pietrasik'
p331
sg23
S'20361874'
p332
sg25
g331
sg26
(lp333
sssS'Duong'
p334
(dp335
S'Anh'
p336
(dp337
g8
(lp338
sg11
S'deanza.instructure.com'
p339
sg13
g334
sg14
S'PHYS 050.62'
p340
sg16
S'20108511'
p341
sg18
S'68777'
p342
sg20
g336
sg21
S'Anh Duong'
p343
sg23
S'20108511'
p344
sg25
g343
sg26
(lp345
sssS'Corall'
p346
(dp347
S'Christopher'
p348
(dp349
g8
(lp350
sg11
S'deanza.instructure.com'
p351
sg13
g346
sg14
S'PHYS 050.62'
p352
sg16
S'20307643'
p353
sg18
S'11764'
p354
sg20
g348
sg21
S'Christopher Corall'
p355
sg23
S'20307643'
p356
sg25
g355
sg26
(lp357
sssS'Genis'
p358
(dp359
S'Inanc'
p360
(dp361
g8
(lp362
sg11
S'deanza.instructure.com'
p363
sg13
g358
sg14
S'PHYS 050.62'
p364
sg16
S'20297025'
p365
sg18
S'4073'
p366
sg20
g360
sg21
S'Inanc Genis'
p367
sg23
S'20297025'
p368
sg25
g367
sg26
(lp369
sssS'Phan'
p370
(dp371
S'Jimmy'
p372
(dp373
g8
(lp374
sg11
S'deanza.instructure.com'
p375
sg13
g370
sg14
S'PHYS 050.62'
p376
sg16
S'20359867'
p377
sg18
S'58743'
p378
sg20
g372
sg21
S'Jimmy Phan'
p379
sg23
S'20359867'
p380
sg25
g379
sg26
(lp381
sssS'Fotoohighiam'
p382
(dp383
S'Asher'
p384
(dp385
g8
(lp386
sg11
S'deanza.instructure.com'
p387
sg13
g382
sg14
S'PHYS 050.62'
p388
sg16
S'20261528'
p389
sg18
S'3119'
p390
sg20
g384
sg21
S'Asher Fotoohighiam'
p391
sg23
S'20261528'
p392
sg25
g391
sg26
(lp393
sssS'Suhail'
p394
(dp395
S'Saadi'
p396
(dp397
g8
(lp398
sg11
S'deanza.instructure.com'
p399
sg13
g394
sg14
S'PHYS 050.62'
p400
sg16
S'20348336'
p401
sg18
S'48139'
p402
sg20
g396
sg21
S'Saadi Suhail'
p403
sg23
S'20348336'
p404
sg25
g403
sg26
(lp405
sssS'Hsiao'
p406
(dp407
S'Chia'
p408
(dp409
g8
(lp410
S'Lin Hsiao'
p411
asg11
S'deanza.instructure.com'
p412
sg13
g406
sg14
S'PHYS 050.62'
p413
sg16
S'20307273'
p414
sg18
S'10593'
p415
sg20
g408
sg21
S'Chia Lin Hsiao'
p416
sg23
S'20307273'
p417
sg25
g416
sg26
(lp418
sssS'Imanaka'
p419
(dp420
S'Takumi'
p421
(dp422
g8
(lp423
sg11
S'deanza.instructure.com'
p424
sg13
g419
sg14
S'PHYS 050.62'
p425
sg16
S'20327109'
p426
sg18
S'20964'
p427
sg20
g421
sg21
S'Takumi Imanaka'
p428
sg23
S'20327109'
p429
sg25
g428
sg26
(lp430
sssS'Zhou'
p431
(dp432
S'Yanying'
p433
(dp434
g8
(lp435
sg11
S'deanza.instructure.com'
p436
sg13
g431
sg14
S'PHYS 050.62'
p437
sg16
S'20035450'
p438
sg18
S'75694'
p439
sg20
g433
sg21
S'Yanying Zhou'
p440
sg23
S'20035450'
p441
sg25
g440
sg26
(lp442
sssS'Liu'
p443
(dp444
S'Yang'
p445
(dp446
g8
(lp447
sg11
S'deanza.instructure.com'
p448
sg13
g443
sg14
S'PHYS 050.62'
p449
sg16
S'20294975'
p450
sg18
S'13944'
p451
sg20
g445
sg21
S'Yang Liu'
p452
sg23
S'20294975'
p453
sg25
g452
sg26
(lp454
sssS'Fawal'
p455
(dp456
S'Ibraheem'
p457
(dp458
g8
(lp459
sg11
S'deanza.instructure.com'
p460
sg13
g455
sg14
S'PHYS 050.62'
p461
sg16
S'20257192'
p462
sg18
S'22915'
p463
sg20
g457
sg21
S'Ibraheem Fawal'
p464
sg23
S'20257192'
p465
sg25
g464
sg26
(lp466
sssS'Guan'
p467
(dp468
S'Yuwei'
p469
(dp470
g8
(lp471
sg11
S'deanza.instructure.com'
p472
sg13
g467
sg14
S'PHYS 050.62'
p473
sg16
S'20373291'
p474
sg18
S'67827'
p475
sg20
g469
sg21
S'Yuwei Guan'
p476
sg23
S'20373291'
p477
sg25
g476
sg26
(lp478
sssS'Lien'
p479
(dp480
S'David'
p481
(dp482
g8
(lp483
sg11
S'deanza.instructure.com'
p484
sg13
g479
sg14
S'PHYS 050.62'
p485
sg16
S'11350397'
p486
sg18
S'7123'
p487
sg20
g481
sg21
S'David Lien'
p488
sg23
S'11350397'
p489
sg25
g488
sg26
(lp490
sssS'Darwish'
p491
(dp492
S'Ayten'
p493
(dp494
g8
(lp495
sg11
S'deanza.instructure.com'
p496
sg13
g491
sg14
S'PHYS 050.62'
p497
sg16
S'20353416'
p498
sg18
S'53036'
p499
sg20
g493
sg21
S'Ayten Darwish'
p500
sg23
S'20353416'
p501
sg25
g500
sg26
(lp502
sssS'Mesquita'
p503
(dp504
S'Camila'
p505
(dp506
g8
(lp507
S'Picanco Mesquita'
p508
asg11
S'deanza.instructure.com'
p509
sg13
g503
sg14
S'PHYS 050.62'
p510
sg16
S'20351537'
p511
sg18
S'51367'
p512
sg20
g505
sg21
S'Camila Picanco Mesquita'
p513
sg23
S'20351537'
p514
sg25
g513
sg26
(lp515
sssS'Rivero'
p516
(dp517
S'Juan'
p518
(dp519
g8
(lp520
S'Antonio Gallo Rivero'
p521
aS'Gallo Rivero'
p522
asg11
S'deanza.instructure.com'
p523
sg13
g516
sg14
S'PHYS 050.62'
p524
sg16
S'20367657'
p525
sg18
S'64659'
p526
sg20
g518
sg21
S'Juan Antonio Gallo Rivero'
p527
sg23
S'20367657'
p528
sg25
g527
sg26
(lp529
sssS'Chandra'
p530
(dp531
S'Anisha'
p532
(dp533
g8
(lp534
sg11
S'deanza.instructure.com'
p535
sg13
g530
sg14
S'PHYS 050.62'
p536
sg16
S'20275280'
p537
sg18
S'61754'
p538
sg20
g532
sg21
S'Anisha Chandra'
p539
sg23
S'20275280'
p540
sg25
g539
sg26
(lp541
sssS'Sarkar'
p542
(dp543
S'Drishan'
p544
(dp545
g8
(lp546
sg11
S'deanza.instructure.com'
p547
sg13
g542
sg14
S'PHYS 050.62'
p548
sg16
S'20202623'
p549
sg18
S'203'
p550
sg20
g544
sg21
S'Drishan Sarkar'
p551
sg23
S'20202623'
p552
sg25
g551
sg26
(lp553
sssS'Hamzehpour'
p554
(dp555
S'Newsha'
p556
(dp557
g8
(lp558
sg11
S'deanza.instructure.com'
p559
sg13
g554
sg14
S'PHYS 050.62'
p560
sg16
S'20210475'
p561
sg18
S'15980'
p562
sg20
g556
sg21
S'Newsha Hamzehpour'
p563
sg23
S'20210475'
p564
sg25
g563
sg26
(lp565
ssssS'fieldnames'
p566
(lp567
g21
ag18
ag23
ag16
ag11
ag14
asS'ID'
p568
(dp569
g257
(g247
g249
tp570
sg540
(g530
g532
tp571
sg429
(g419
g421
tp572
sg24
(g4
g6
tp573
sg281
(g271
g273
tp574
sg136
(g126
g128
tp575
sg306
(g295
S'.'
tp576
sg320
(g308
g310
tp577
sg528
(g516
g518
tp578
sg404
(g394
g396
tp579
sg99
(g89
g91
tp580
sg210
(g205
g200
tp581
sg293
(g283
g285
tp582
sg160
(g150
g152
tp583
sg564
(g554
g556
tp584
sg124
(g113
g115
tp585
sg75
(g65
g67
tp586
sg477
(g467
g469
tp587
sg489
(g479
g481
tp588
sg441
(g431
g433
tp589
sg38
(g28
g30
tp590
sg552
(g542
g544
tp591
sg344
(g334
g336
tp592
sg50
(g40
g42
tp593
sg245
(g235
g237
tp594
sg332
(g322
g324
tp595
sg501
(g491
g493
tp596
sg87
(g77
g79
tp597
sg172
(g162
g164
tp598
sg380
(g370
g372
tp599
sg63
(g52
g54
tp600
sg465
(g455
g457
tp601
sg233
(g228
g224
tp602
sg269
(g259
g261
tp603
sg184
(g174
S'.'
tp604
sg417
(g406
g408
tp605
sg368
(g358
g360
tp606
sg222
(g198
g212
tp607
sg453
(g443
g445
tp608
sg148
(g138
g140
tp609
sg196
(g186
g188
tp610
sg392
(g382
g384
tp611
sg111
(g101
g103
tp612
sg514
(g503
g505
tp613
sg356
(g346
g348
tp614
ssS'aliases'
p615
(dp616
(g411
g408
tp617
(g406
g408
tp618
s(g10
g6
tp619
(g4
g6
tp620
s(g300
S'.'
tp621
(g295
S'.'
tp622
s(g178
S'.'
tp623
(g174
S'.'
tp624
s(g521
g518
tp625
(g516
g518
tp626
s(g314
g310
tp627
(g308
g310
tp628
s(g216
g212
tp629
(g198
g212
tp630
s(g215
g212
tp631
(g198
g212
tp632
s(g313
g310
tp633
(g308
g310
tp634
s(g203
g200
tp635
(g205
g200
tp636
s(g118
g115
tp637
(g113
g115
tp638
s(g522
g518
tp639
(g516
g518
tp640
s(g508
g505
tp641
(g503
g505
tp642
s(g57
g54
tp643
(g52
g54
tp644
s(g299
S'.'
tp645
(g295
S'.'
tp646
ssS'name'
p647
S'Phys50Winter2019'
p648
sS'newcorrections'
p649
(dp650
sS'studentlist'
p651
(lp652
g286
ag250
ag80
ag129
ag189
ag31
ag533
ag116
ag141
ag349
ag494
ag7
ag153
ag337
ag458
ag385
ag519
ag361
ag311
ag92
ag470
ag557
ag165
ag409
ag176
ag422
ag68
ag482
ag43
ag446
ag238
ag213
ag225
ag201
ag373
ag506
ag325
ag55
ag545
ag397
ag262
ag297
ag104
ag434
ag274
asS'nameformat'
p653
S'onecolumn'
p654
sS'SubstringOccurences'
p655
NsS'corrections'
p656
(dp657
sS'idcolumn'
p658
I2
s.