(dp1
S'assignments'
p2
NsS'grades'
p3
(dp4
S'Students'
p5
(dp6
(S'Mac'
S'Minh'
tp7
(dp8
S'Weighted Percent'
p9
NsS'Attendance'
p10
F39
sS'Percent'
p11
NsS'Scores'
p12
(lp13
F39
asS'Total'
p14
F39
sS'Weighted Total'
p15
F0
ss(S'Truong'
S'Minh'
tp16
(dp17
g9
Nsg10
F51
sg11
Nsg12
(lp18
F51
asg14
F51
sg15
F0
ss(S'Liu'
S'Yang'
tp19
(dp20
g9
Nsg10
F48
sg11
Nsg12
(lp21
F48
asg14
F48
sg15
F0
ss(S'Nguyen'
S'Thu'
tp22
(dp23
g9
Nsg10
F33
sg11
Nsg12
(lp24
F33
asg14
F33
sg15
F0
ss(S'Lien'
S'David'
tp25
(dp26
g9
Nsg10
F45
sg11
Nsg12
(lp27
F45
asg14
F45
sg15
F0
ss(S'Guan'
S'Yuwei'
tp28
(dp29
g9
Nsg10
F33
sg11
Nsg12
(lp30
F33
asg14
F33
sg15
F0
ss(S'Duong'
S'Anh'
tp31
(dp32
g9
Nsg10
F51
sg11
Nsg12
(lp33
F51
asg14
F51
sg15
F0
ss(S'Ayala'
S'Dustin'
tp34
(dp35
g9
Nsg10
F45
sg11
Nsg12
(lp36
F45
asg14
F45
sg15
F0
ss(S'Rivero'
S'Juan'
tp37
(dp38
g9
Nsg10
F15
sg11
Nsg12
(lp39
F15
asg14
F15
sg15
F0
ss(S'Genis'
S'Inanc'
tp40
(dp41
g9
Nsg10
F36
sg11
Nsg12
(lp42
F36
asg14
F36
sg15
F0
ss(S'Imanaka'
S'Takumi'
tp43
(dp44
g9
Nsg10
F45
sg11
Nsg12
(lp45
F45
asg14
F45
sg15
F0
ss(S'Goodman'
S'Andrew'
tp46
(dp47
g9
Nsg10
F48
sg11
Nsg12
(lp48
F48
asg14
F48
sg15
F0
ss(S'Cheng'
S'Hui'
tp49
(dp50
g9
Nsg10
F51
sg11
Nsg12
(lp51
F51
asg14
F51
sg15
F0
ss(S'Hsiao'
S'Chia'
tp52
(dp53
g9
Nsg10
F51
sg11
Nsg12
(lp54
F51
asg14
F51
sg15
F0
ss(S'Fawal'
S'Ibraheem'
tp55
(dp56
g9
Nsg10
F45
sg11
Nsg12
(lp57
F45
asg14
F45
sg15
F0
ss(S'Myat'
S'.'
tp58
(dp59
g9
Nsg10
F42
sg11
Nsg12
(lp60
F42
asg14
F42
sg15
F0
ss(S'Chaffee'
S'Tyler'
tp61
(dp62
g9
Nsg10
F30
sg11
Nsg12
(lp63
F30
asg14
F30
sg15
F0
ss(S'Tung'
S'.'
tp64
(dp65
g9
Nsg10
F42
sg11
Nsg12
(lp66
F42
asg14
F42
sg15
F0
ss(S'Dehart'
S'Christopher'
tp67
(dp68
g9
Nsg10
F42
sg11
Nsg12
(lp69
F42
asg14
F42
sg15
F0
ss(S'Lim'
S'Hyeseul'
tp70
(dp71
g9
Nsg10
F42
sg11
Nsg12
(lp72
F42
asg14
F42
sg15
F0
ss(S'Chandra'
S'Anisha'
tp73
(dp74
g9
Nsg10
F39
sg11
Nsg12
(lp75
F39
asg14
F39
sg15
F0
ss(S'Phan'
S'Jimmy'
tp76
(dp77
g9
Nsg10
F45
sg11
Nsg12
(lp78
F45
asg14
F45
sg15
F0
ss(S'Corall'
S'Christopher'
tp79
(dp80
g9
Nsg10
F42
sg11
Nsg12
(lp81
F42
asg14
F42
sg15
F0
ss(S'Zhou'
S'Yanying'
tp82
(dp83
g9
Nsg10
F51
sg11
Nsg12
(lp84
F51
asg14
F51
sg15
F0
ss(S'Li'
S'Jilly'
tp85
(dp86
g9
Nsg10
F45
sg11
Nsg12
(lp87
F45
asg14
F45
sg15
F0
ss(S'Chiu'
S'Sanne'
tp88
(dp89
g9
Nsg10
F39
sg11
Nsg12
(lp90
F39
asg14
F39
sg15
F0
ss(S'Nguyen'
S'Le'
tp91
(dp92
g9
Nsg10
F36
sg11
Nsg12
(lp93
F36
asg14
F36
sg15
F0
ss(S'Jose'
S'Remi'
tp94
(dp95
g9
Nsg10
F51
sg11
Nsg12
(lp96
F51
asg14
F51
sg15
F0
ss(S'Hamzehpour'
S'Newsha'
tp97
(dp98
g9
Nsg10
F45
sg11
Nsg12
(lp99
F45
asg14
F45
sg15
F0
ss(S'Darwish'
S'Ayten'
tp100
(dp101
g9
Nsg10
F36
sg11
Nsg12
(lp102
F36
asg14
F36
sg15
F0
ss(S'Mesquita'
S'Camila'
tp103
(dp104
g9
Nsg10
F51
sg11
Nsg12
(lp105
F51
asg14
F51
sg15
F0
ss(S'Avci'
S'Efecan'
tp106
(dp107
g9
Nsg10
F36
sg11
Nsg12
(lp108
F36
asg14
F36
sg15
F0
ss(S'Yan'
S'Jiaqing'
tp109
(dp110
g9
Nsg10
F27
sg11
Nsg12
(lp111
F27
asg14
F27
sg15
F0
ss(S'Sarkar'
S'Drishan'
tp112
(dp113
g9
Nsg10
F45
sg11
Nsg12
(lp114
F45
asg14
F45
sg15
F0
ss(S'Pietrasik'
S'Connor'
tp115
(dp116
g9
Nsg10
F51
sg11
Nsg12
(lp117
F51
asg14
F51
sg15
F0
ss(S'Suhail'
S'Saadi'
tp118
(dp119
g9
Nsg10
F51
sg11
Nsg12
(lp120
F51
asg14
F51
sg15
F0
ss(S'Aktas'
S'Hediye'
tp121
(dp122
g9
Nsg10
F48
sg11
Nsg12
(lp123
F48
asg14
F48
sg15
F0
ss(S'Nguyen'
S'Peter'
tp124
(dp125
g9
Nsg10
F51
sg11
Nsg12
(lp126
F51
asg14
F51
sg15
F0
ss(S'Santella'
S'Andi'
tp127
(dp128
g9
Nsg10
F42
sg11
Nsg12
(lp129
F42
asg14
F42
sg15
F0
ss(S'Giancana'
S'Ida'
tp130
(dp131
g9
Nsg10
F21
sg11
Nsg12
(lp132
F21
asg14
F21
sg15
F0
ss(S'Anisimov'
S'Yuriy'
tp133
(dp134
g9
Nsg10
F24
sg11
Nsg12
(lp135
F24
asg14
F24
sg15
F0
ss(S'Fotoohighiam'
S'Asher'
tp136
(dp137
g9
Nsg10
F12
sg11
Nsg12
(lp138
F12
asg14
F12
sg15
F0
ss(S'Arquette'
S'Marlo'
tp139
(dp140
g9
Nsg10
F36
sg11
Nsg12
(lp141
F36
asg14
F36
sg15
F0
ss(S'Hernandez'
S'Rosalee'
tp142
(dp143
g9
Nsg10
F30
sg11
Nsg12
(lp144
F30
asg14
F30
sg15
F0
ss(S'Zokhidova'
S'Leyla'
tp145
(dp146
g9
Nsg10
F45
sg11
Nsg12
(lp147
F45
asg14
F45
sg15
F0
sssS'Points Possible'
p148
(lp149
F51
asS'Weights'
p150
(lp151
F1
asS'Entries'
p152
(lp153
S'Attendance'
p154
assS'roster_file'
p155
S'/home/jaryd/GitHub/GradeBook/repository/rosters/Phys50Winter2019.pickle'
p156
s.